(dp0
S'C14665'
p1
S'HMDB06027'
p2
sS'C11159'
p3
S'HMDB29845'
p4
sS'C18728'
p5
S'HMDB31789'
p6
sS'C04392'
p7
S'HMDB03834'
p8
sS'C16578'
p9
S'HMDB41937'
p10
sS'C10907'
p11
S'HMDB33147'
p12
sS'C16571'
p13
S'HMDB60680'
p14
sS'C16572'
p15
S'HMDB60678'
p16
sS'C16576'
p17
S'HMDB60657'
p18
sS'C16577'
p19
S'HMDB60464'
p20
sS'C14509'
p21
S'HMDB13316'
p22
sS'C01029'
p23
S'HMDB60288'
p24
sS'C01026'
p25
S'HMDB00092'
p26
sS'C01756'
p27
S'HMDB15167'
p28
sS'C16323'
p29
S'HMDB31152'
p30
sS'C01750'
p31
S'HMDB33751'
p32
sS'C01751'
p33
S'HMDB32037'
p34
sS'C01020'
p35
S'HMDB02658'
p36
sS'C01753'
p37
S'HMDB00852'
p38
sS'C13482'
p39
S'HMDB60244'
p40
sS'C00559'
p41
S'HMDB00101'
p42
sS'C14260'
p43
S'HMDB41618'
p44
sS'C14594'
p45
S'HMDB05972'
p46
sS'C16682'
p47
S'HMDB06217'
p48
sS'C16683'
p49
S'HMDB12329'
p50
sS'C16680'
p51
S'HMDB12451'
p52
sS'C07350'
p53
S'HMDB33798'
p54
sS'C13061'
p55
S'HMDB13854'
p56
sS'C08299'
p57
S'HMDB41842'
p58
sS'C07447'
p59
S'HMDB60428'
p60
sS'C00887'
p61
S'HMDB35807'
p62
sS'C07974'
p63
S'HMDB15582'
p64
sS'C00556'
p65
S'HMDB03119'
p66
sS'C02135'
p67
S'HMDB01035'
p68
sS'C07973'
p69
S'HMDB14730'
p70
sS'C02137'
p71
S'HMDB01587'
p72
sS'C07212'
p73
S'HMDB59851'
p74
sS'C14460'
p75
S'HMDB13163'
p76
sS'C00881'
p77
S'HMDB00014'
p78
sS'C01330'
p79
S'HMDB00588'
p80
sS'C09821'
p81
S'HMDB12180'
p82
sS'C05839'
p83
S'HMDB60077'
p84
sS'C05838'
p85
S'HMDB41592'
p86
sS'C01802'
p87
S'HMDB02719'
p88
sS'C01807'
p89
S'HMDB29881'
p90
sS'C05831'
p91
S'HMDB60374'
p92
sS'C05830'
p93
S'HMDB60426'
p94
sS'C05832'
p95
S'HMDB04185'
p96
sS'C05834'
p97
S'HMDB04186'
p98
sS'C12270'
p99
S'HMDB01067'
p100
sS'C03663'
p101
S'HMDB29659'
p102
sS'C03661'
p103
S'HMDB11729'
p104
sS'C14844'
p105
S'HMDB60447'
p106
sS'C03664'
p107
S'HMDB41797'
p108
sS'C16199'
p109
S'HMDB11725'
p110
sS'C16197'
p111
S'HMDB39323'
p112
sS'C03668'
p113
S'HMDB00744'
p114
sS'C16649'
p115
S'HMDB13900'
p116
sS'C00370'
p117
S'HMDB60512'
p118
sS'C07908'
p119
S'HMDB14826'
p120
sS'C16756'
p121
S'HMDB30479'
p122
sS'C16757'
p123
S'HMDB33566'
p124
sS'C15882'
p125
S'HMDB38959'
p126
sS'C01244'
p127
S'HMDB59637'
p128
sS'C01937'
p129
S'HMDB14703'
p130
sS'C01243'
p131
S'HMDB01143'
p132
sS'C01933'
p133
S'HMDB01645'
p134
sS'C02227'
p135
S'HMDB41802'
p136
sS'C02226'
p137
S'HMDB00634'
p138
sS'C02593'
p139
S'HMDB01521'
p140
sS'C02220'
p141
S'HMDB01241'
p142
sS'C02223'
p143
S'HMDB31526'
p144
sS'C02222'
p145
S'HMDB60348'
p146
sS'C19285'
p147
S'HMDB31642'
p148
sS'C02917'
p149
S'HMDB06213'
p150
sS'C02918'
p151
S'HMDB00699'
p152
sS'C00378'
p153
S'HMDB00235'
p154
sS'C19579'
p155
S'HMDB01119'
p156
sS'C17568'
p157
S'HMDB36062'
p158
sS'C16570'
p159
S'HMDB60681'
p160
sS'C18574'
p161
S'HMDB31780'
p162
sS'C00075'
p163
S'HMDB00285'
p164
sS'C19575'
p165
S'HMDB32178'
p166
sS'C19574'
p167
S'HMDB41809'
p168
sS'C17562'
p169
S'HMDB60352'
p170
sS'C13244'
p171
S'HMDB15503'
p172
sS'C06588'
p173
S'HMDB34437'
p174
sS'C03069'
p175
S'HMDB01493'
p176
sS'C03065'
p177
S'HMDB13222'
p178
sS'C17765'
p179
S'HMDB29515'
p180
sS'C17810'
p181
S'HMDB34444'
p182
sS'C17811'
p183
S'HMDB34443'
p184
sS'C02824'
p185
S'HMDB31340'
p186
sS'C06366'
p187
S'HMDB31506'
p188
sS'C06346'
p189
S'HMDB33103'
p190
sS'C03267'
p191
S'HMDB06800'
p192
sS'C02043'
p193
S'HMDB00671'
p194
sS'C03263'
p195
S'HMDB01261'
p196
sS'C02046'
p197
S'HMDB14568'
p198
sS'C03087'
p199
S'HMDB12175'
p200
sS'C06562'
p201
S'HMDB02780'
p202
sS'C06563'
p203
S'HMDB03217'
p204
sS'C03080'
p205
S'HMDB41683'
p206
sS'C08039'
p207
S'HMDB14894'
p208
sS'C08032'
p209
S'HMDB15455'
p210
sS'C03088'
p211
S'HMDB00469'
p212
sS'C03089'
p213
S'HMDB01087'
p214
sS'C16361'
p215
S'HMDB02123'
p216
sS'C16360'
p217
S'HMDB01982'
p218
sS'C14916'
p219
S'HMDB60533'
p220
sS'C16365'
p221
S'HMDB11105'
p222
sS'C16364'
p223
S'HMDB29198'
p224
sS'C16366'
p225
S'HMDB04400'
p226
sS'C11409'
p227
S'HMDB59608'
p228
sS'C11408'
p229
S'HMDB35622'
p230
sS'C04272'
p231
S'HMDB12141'
p232
sS'C04273'
p233
S'HMDB34981'
p234
sS'C04217'
p235
S'HMDB12231'
p236
sS'C19174'
p237
S'HMDB60116'
p238
sS'C07743'
p239
S'HMDB14818'
p240
sS'C08996'
p241
S'HMDB02336'
p242
sS'C11131'
p243
S'HMDB06765'
p244
sS'C09923'
p245
S'HMDB33771'
p246
sS'C06547'
p247
S'HMDB29594'
p248
sS'C18486'
p249
S'HMDB40546'
p250
sS'C18487'
p251
S'HMDB37113'
p252
sS'C09925'
p253
S'HMDB34270'
p254
sS'C12448'
p255
S'HMDB06406'
p256
sS'C06548'
p257
S'HMDB31305'
p258
sS'C08320'
p259
S'HMDB02003'
p260
sS'C07180'
p261
S'HMDB14930'
p262
sS'C07187'
p263
S'HMDB61166'
p264
sS'C07185'
p265
S'HMDB01877'
p266
sS'C04352'
p267
S'HMDB01117'
p268
sS'C06162'
p269
S'HMDB29367'
p270
sS'C07188'
p271
S'HMDB01850'
p272
sS'C03406'
p273
S'HMDB00052'
p274
sS'C06696'
p275
S'HMDB04628'
p276
sS'C06697'
p277
S'HMDB11620'
p278
sS'C07569'
p279
S'HMDB14690'
p280
sS'C07568'
p281
S'HMDB14391'
p282
sS'C06662'
p283
S'HMDB14904'
p284
sS'C04185'
p285
S'HMDB01253'
p286
sS'C07561'
p287
S'HMDB31330'
p288
sS'C05452'
p289
S'HMDB06893'
p290
sS'C03884'
p291
S'HMDB29416'
p292
sS'C05450'
p293
S'HMDB06890'
p294
sS'C03882'
p295
S'HMDB29377'
p296
sS'C07564'
p297
S'HMDB14413'
p298
sS'C07567'
p299
S'HMDB15618'
p300
sS'C05454'
p301
S'HMDB01457'
p302
sS'C18627'
p303
S'HMDB13592'
p304
sS'C00696'
p305
S'HMDB01403'
p306
sS'C00697'
p307
S'HMDB01371'
p308
sS'C00695'
p309
S'HMDB00619'
p310
sS'C00083'
p311
S'HMDB01175'
p312
sS'C00698'
p313
S'HMDB00492'
p314
sS'C00502'
p315
S'HMDB59750'
p316
sS'C14861'
p317
S'HMDB60506'
p318
sS'C11249'
p319
S'HMDB29597'
p320
sS'C00501'
p321
S'HMDB03369'
p322
sS'C14864'
p323
S'HMDB60505'
p324
sS'C14865'
p325
S'HMDB60342'
p326
sS'C00504'
p327
S'HMDB00121'
p328
sS'C14868'
p329
S'HMDB60504'
p330
sS'C14869'
p331
S'HMDB42049'
p332
sS'C05551'
p333
S'HMDB15186'
p334
sS'C11240'
p335
S'HMDB42009'
p336
sS'C00849'
p337
S'HMDB31217'
p338
sS'C09818'
p339
S'HMDB12223'
p340
sS'C18239'
p341
S'HMDB59639'
p342
sS'C03313'
p343
S'HMDB60502'
p344
sS'C07369'
p345
S'HMDB14998'
p346
sS'C07368'
p347
S'HMDB14600'
p348
sS'C07367'
p349
S'HMDB15191'
p350
sS'C07366'
p351
S'HMDB15527'
p352
sS'C01186'
p353
S'HMDB12115'
p354
sS'C07363'
p355
S'HMDB15070'
p356
sS'C07362'
p357
S'HMDB14381'
p358
sS'C07360'
p359
S'HMDB15195'
p360
sS'C07415'
p361
S'HMDB14853'
p362
sS'C07414'
p363
S'HMDB15563'
p364
sS'C07417'
p365
S'HMDB14444'
p366
sS'C00329'
p367
S'HMDB01514'
p368
sS'C07411'
p369
S'HMDB14755'
p370
sS'C07410'
p371
S'HMDB14685'
p372
sS'C07413'
p373
S'HMDB15462'
p374
sS'C06834'
p375
S'HMDB05006'
p376
sS'C06835'
p377
S'HMDB15249'
p378
sS'C06837'
p379
S'HMDB15128'
p380
sS'C00327'
p381
S'HMDB00904'
p382
sS'C06832'
p383
S'HMDB14775'
p384
sS'C00843'
p385
S'HMDB35162'
p386
sS'C00063'
p387
S'HMDB00082'
p388
sS'C09256'
p389
S'HMDB15464'
p390
sS'C00841'
p391
S'HMDB29457'
p392
sS'C04051'
p393
S'HMDB03192'
p394
sS'C10208'
p395
S'HMDB03312'
p396
sS'C11332'
p397
S'HMDB28933'
p398
sS'C04056'
p399
S'HMDB03797'
p400
sS'C10759'
p401
S'HMDB29683'
p402
sS'C05581'
p403
S'HMDB05175'
p404
sS'C05580'
p405
S'HMDB01866'
p406
sS'C05583'
p407
S'HMDB04061'
p408
sS'C05582'
p409
S'HMDB00118'
p410
sS'C05585'
p411
S'HMDB04062'
p412
sS'C05587'
p413
S'HMDB00022'
p414
sS'C10203'
p415
S'HMDB32696'
p416
sS'C12531'
p417
S'HMDB14937'
p418
sS'C00218'
p419
S'HMDB60291'
p420
sS'C00219'
p421
S'HMDB01043'
p422
sS'C00217'
p423
S'HMDB03339'
p424
sS'C00214'
p425
S'HMDB00273'
p426
sS'C00212'
p427
S'HMDB00050'
p428
sS'C00213'
p429
S'HMDB00271'
p430
sS'C00036'
p431
S'HMDB00223'
p432
sS'C00037'
p433
S'HMDB00123'
p434
sS'C00035'
p435
S'HMDB01201'
p436
sS'C00033'
p437
S'HMDB00042'
p438
sS'C00031'
p439
S'HMDB00122'
p440
sS'C00038'
p441
S'HMDB01303'
p442
sS'C05631'
p443
S'HMDB05810'
p444
sS'C01926'
p445
S'HMDB14473'
p446
sS'C05637'
p447
S'HMDB60289'
p448
sS'C05636'
p449
S'HMDB60281'
p450
sS'C05635'
p451
S'HMDB00763'
p452
sS'C05634'
p453
S'HMDB04073'
p454
sS'C06900'
p455
S'HMDB14436'
p456
sS'C06902'
p457
S'HMDB15016'
p458
sS'C05638'
p459
S'HMDB04076'
p460
sS'C06905'
p461
S'HMDB01944'
p462
sS'C06906'
p463
S'HMDB14620'
p464
sS'C15182'
p465
S'HMDB15632'
p466
sS'C10126'
p467
S'HMDB04476'
p468
sS'C10118'
p469
S'HMDB30802'
p470
sS'C10119'
p471
S'HMDB30804'
p472
sS'C11750'
p473
S'HMDB15542'
p474
sS'C10112'
p475
S'HMDB29540'
p476
sS'C11758'
p477
S'HMDB14554'
p478
sS'C15437'
p479
S'HMDB37518'
p480
sS'C07760'
p481
S'HMDB15325'
p482
sS'C05147'
p483
S'HMDB59659'
p484
sS'C07767'
p485
S'HMDB15156'
p486
sS'C06255'
p487
S'HMDB01865'
p488
sS'C01924'
p489
S'HMDB00670'
p490
sS'C01103'
p491
S'HMDB00218'
p492
sS'C04462'
p493
S'HMDB12266'
p494
sS'C01104'
p495
S'HMDB00925'
p496
sS'C01107'
p497
S'HMDB01343'
p498
sS'C01108'
p499
S'HMDB13674'
p500
sS'C06611'
p501
S'HMDB60514'
p502
sS'C08493'
p503
S'HMDB29737'
p504
sS'C10373'
p505
S'HMDB40867'
p506
sS'C05127'
p507
S'HMDB00898'
p508
sS'C14692'
p509
S'HMDB59903'
p510
sS'C14691'
p511
S'HMDB32539'
p512
sS'C14690'
p513
S'HMDB32465'
p514
sS'C05123'
p515
S'HMDB03903'
p516
sS'C14696'
p517
S'HMDB31265'
p518
sS'C14694'
p519
S'HMDB32865'
p520
sS'C10577'
p521
S'HMDB30274'
p522
sS'C15508'
p523
S'HMDB31558'
p524
sS'C08309'
p525
S'HMDB02004'
p526
sS'C16565'
p527
S'HMDB12189'
p528
sS'C16561'
p529
S'HMDB60656'
p530
sS'C16560'
p531
S'HMDB60655'
p532
sS'C07069'
p533
S'HMDB14647'
p534
sS'C16569'
p535
S'HMDB60679'
p536
sS'C05021'
p537
S'HMDB00853'
p538
sS'C05028'
p539
S'HMDB14855'
p540
sS'C15499'
p541
S'HMDB31648'
p542
sS'C03401'
p543
S'HMDB02006'
p544
sS'C01236'
p545
S'HMDB01127'
p546
sS'C18167'
p547
S'HMDB13692'
p548
sS'C04518'
p549
S'HMDB11653'
p550
sS'C14581'
p551
S'HMDB32564'
p552
sS'C01035'
p553
S'HMDB03464'
p554
sS'C01036'
p555
S'HMDB02052'
p556
sS'C01031'
p557
S'HMDB01550'
p558
sS'C01746'
p559
S'HMDB34301'
p560
sS'C01033'
p561
S'HMDB01041'
p562
sS'C01744'
p563
S'HMDB02199'
p564
sS'C14279'
p565
S'HMDB32914'
p566
sS'C07163'
p567
S'HMDB14477'
p568
sS'C14272'
p569
S'HMDB31299'
p570
sS'C14275'
p571
S'HMDB13785'
p572
sS'C02502'
p573
S'HMDB13751'
p574
sS'C07434'
p575
S'HMDB15305'
p576
sS'C16699'
p577
S'HMDB12152'
p578
sS'C19610'
p579
S'HMDB01333'
p580
sS'C07872'
p581
S'HMDB15213'
p582
sS'C10804'
p583
S'HMDB32594'
p584
sS'C00331'
p585
S'HMDB60484'
p586
sS'C07496'
p587
S'HMDB60658'
p588
sS'C17079'
p589
S'HMDB05874'
p590
sS'C10809'
p591
S'HMDB31009'
p592
sS'C07965'
p593
S'HMDB14913'
p594
sS'C04707'
p595
S'HMDB03175'
p596
sS'C01633'
p597
S'HMDB11624'
p598
sS'C05338'
p599
S'HMDB03967'
p600
sS'C02105'
p601
S'HMDB03601'
p602
sS'C02455'
p603
S'HMDB02017'
p604
sS'C05332'
p605
S'HMDB60276'
p606
sS'C07968'
p607
S'HMDB14849'
p608
sS'C05330'
p609
S'HMDB00742'
p610
sS'C14472'
p611
S'HMDB30575'
p612
sS'C14476'
p613
S'HMDB37600'
p614
sS'C14475'
p615
S'HMDB06048'
p616
sS'C01324'
p617
S'HMDB02500'
p618
sS'C01327'
p619
S'HMDB02306'
p620
sS'C01326'
p621
S'HMDB60292'
p622
sS'C01176'
p623
S'HMDB00374'
p624
sS'C01816'
p625
S'HMDB59830'
p626
sS'C01814'
p627
S'HMDB14645'
p628
sS'C07627'
p629
S'HMDB15219'
p630
sS'C03672'
p631
S'HMDB00755'
p632
sS'C16184'
p633
S'HMDB39530'
p634
sS'C07625'
p635
S'HMDB14746'
p636
sS'C17616'
p637
S'HMDB60525'
p638
sS'C17617'
p639
S'HMDB60526'
p640
sS'C17615'
p641
S'HMDB30392'
p642
sS'C16748'
p643
S'HMDB34299'
p644
sS'C16741'
p645
S'HMDB00450'
p646
sS'C05938'
p647
S'HMDB06556'
p648
sS'C01251'
p649
S'HMDB03518'
p650
sS'C01250'
p651
S'HMDB06488'
p652
sS'C01925'
p653
S'HMDB34229'
p654
sS'C01252'
p655
S'HMDB00978'
p656
sS'C05932'
p657
S'HMDB01180'
p658
sS'C05933'
p659
S'HMDB04224'
p660
sS'C01259'
p661
S'HMDB01422'
p662
sS'C05936'
p663
S'HMDB04226'
p664
sS'C18368'
p665
S'HMDB34826'
p666
sS'C05769'
p667
S'HMDB00643'
p668
sS'C06897'
p669
S'HMDB15428'
p670
sS'C11695'
p671
S'HMDB04080'
p672
sS'C15981'
p673
S'HMDB02268'
p674
sS'C10186'
p675
S'HMDB36633'
p676
sS'C11004'
p677
S'HMDB60677'
p678
sS'C15988'
p679
S'HMDB59633'
p680
sS'C15989'
p681
S'HMDB59632'
p682
sS'C02078'
p683
S'HMDB15055'
p684
sS'C05804'
p685
S'HMDB06819'
p686
sS'C05802'
p687
S'HMDB06817'
p688
sS'C05803'
p689
S'HMDB06818'
p690
sS'C06354'
p691
S'HMDB32049'
p692
sS'C06350'
p693
S'HMDB12486'
p694
sS'C02678'
p695
S'HMDB00623'
p696
sS'C06352'
p697
S'HMDB29915'
p698
sS'C06575'
p699
S'HMDB05805'
p700
sS'C06574'
p701
S'HMDB14559'
p702
sS'C06577'
p703
S'HMDB02214'
p704
sS'C06576'
p705
S'HMDB31817'
p706
sS'C03091'
p707
S'HMDB11182'
p708
sS'C03090'
p709
S'HMDB01128'
p710
sS'C06573'
p711
S'HMDB14819'
p712
sS'C06572'
p713
S'HMDB14784'
p714
sS'C07083'
p715
S'HMDB34240'
p716
sS'C07080'
p717
S'HMDB04999'
p718
sS'C11002'
p719
S'HMDB31796'
p720
sS'C08021'
p721
S'HMDB15036'
p722
sS'C03098'
p723
S'HMDB33969'
p724
sS'C08022'
p725
S'HMDB14846'
p726
sS'C16358'
p727
S'HMDB10738'
p728
sS'C16359'
p729
S'HMDB03099'
p730
sS'C16355'
p731
S'HMDB11107'
p732
sS'C16356'
p733
S'HMDB11103'
p734
sS'C16357'
p735
S'HMDB01886'
p736
sS'C11430'
p737
S'HMDB59801'
p738
sS'C11432'
p739
S'HMDB59797'
p740
sS'C16353'
p741
S'HMDB01991'
p742
sS'C06687'
p743
S'HMDB15192'
p744
sS'C06686'
p745
S'HMDB14544'
p746
sS'C12455'
p747
S'HMDB12815'
p748
sS'C06353'
p749
S'HMDB29916'
p750
sS'C07778'
p751
S'HMDB05032'
p752
sS'C19326'
p753
S'HMDB29300'
p754
sS'C06681'
p755
S'HMDB14450'
p756
sS'C12450'
p757
S'HMDB06403'
p758
sS'C07774'
p759
S'HMDB14857'
p760
sS'C07777'
p761
S'HMDB14498'
p762
sS'C07771'
p763
S'HMDB15544'
p764
sS'C07773'
p765
S'HMDB15254'
p766
sS'C06178'
p767
S'HMDB60253'
p768
sS'C07178'
p769
S'HMDB14800'
p770
sS'C00525'
p771
S'HMDB13609'
p772
sS'C07177'
p773
S'HMDB15541'
p774
sS'C03413'
p775
S'HMDB02172'
p776
sS'C07175'
p777
S'HMDB15038'
p778
sS'C07172'
p779
S'HMDB15376'
p780
sS'C14800'
p781
S'HMDB60331'
p782
sS'C07171'
p783
S'HMDB14520'
p784
sS'C01942'
p785
S'HMDB13028'
p786
sS'C04282'
p787
S'HMDB02234'
p788
sS'C07792'
p789
S'HMDB15087'
p790
sS'C07790'
p791
S'HMDB15556'
p792
sS'C09314'
p793
S'HMDB15575'
p794
sS'C00832'
p795
S'HMDB15490'
p796
sS'C08243'
p797
S'HMDB11730'
p798
sS'C03665'
p799
S'HMDB01906'
p800
sS'C09311'
p801
S'HMDB30818'
p802
sS'C09312'
p803
S'HMDB34257'
p804
sS'C00521'
p805
S'HMDB03375'
p806
sS'C18142'
p807
S'HMDB59586'
p808
sS'C00683'
p809
S'HMDB01269'
p810
sS'C18140'
p811
S'HMDB37546'
p812
sS'C14804'
p813
S'HMDB60329'
p814
sS'C07064'
p815
S'HMDB00740'
p816
sS'C00689'
p817
S'HMDB01124'
p818
sS'C11508'
p819
S'HMDB06928'
p820
sS'C00510'
p821
S'HMDB01322'
p822
sS'C00513'
p823
S'HMDB59599'
p824
sS'C00512'
p825
S'HMDB02252'
p826
sS'C00515'
p827
S'HMDB03374'
p828
sS'C00517'
p829
S'HMDB01551'
p830
sS'C00519'
p831
S'HMDB00965'
p832
sS'C09868'
p833
S'HMDB36089'
p834
sS'C14874'
p835
S'HMDB60479'
p836
sS'C14872'
p837
S'HMDB42032'
p838
sS'C14871'
p839
S'HMDB60507'
p840
sS'C16150'
p841
S'HMDB14330'
p842
sS'C06772'
p843
S'HMDB04437'
p844
sS'C07318'
p845
S'HMDB14408'
p846
sS'C07319'
p847
S'HMDB05037'
p848
sS'C17592'
p849
S'HMDB30211'
p850
sS'C07312'
p851
S'HMDB14787'
p852
sS'C07313'
p853
S'HMDB14572'
p854
sS'C07310'
p855
S'HMDB14565'
p856
sS'C07311'
p857
S'HMDB03116'
p858
sS'C07316'
p859
S'HMDB14933'
p860
sS'C07317'
p861
S'HMDB15269'
p862
sS'C07315'
p863
S'HMDB15150'
p864
sS'C07420'
p865
S'HMDB14876'
p866
sS'C07421'
p867
S'HMDB14790'
p868
sS'C07422'
p869
S'HMDB14457'
p870
sS'C07424'
p871
S'HMDB14944'
p872
sS'C07425'
p873
S'HMDB15317'
p874
sS'C07427'
p875
S'HMDB14988'
p876
sS'C06823'
p877
S'HMDB15250'
p878
sS'C07429'
p879
S'HMDB15506'
p880
sS'C06821'
p881
S'HMDB14732'
p882
sS'C00332'
p883
S'HMDB01484'
p884
sS'C06827'
p885
S'HMDB15193'
p886
sS'C00334'
p887
S'HMDB00112'
p888
sS'C06825'
p889
S'HMDB05018'
p890
sS'C06824'
p891
S'HMDB14466'
p892
sS'C09268'
p893
S'HMDB29758'
p894
sS'C09269'
p895
S'HMDB34376'
p896
sS'C10938'
p897
S'HMDB32635'
p898
sS'C04686'
p899
S'HMDB60104'
p900
sS'C07714'
p901
S'HMDB15155'
p902
sS'C16511'
p903
S'HMDB02205'
p904
sS'C10219'
p905
S'HMDB31457'
p906
sS'C18038'
p907
S'HMDB60424'
p908
sS'C04043'
p909
S'HMDB03791'
p910
sS'C10216'
p911
S'HMDB33991'
p912
sS'C07713'
p913
S'HMDB15187'
p914
sS'C07554'
p915
S'HMDB15431'
p916
sS'C07556'
p917
S'HMDB14866'
p918
sS'C07225'
p919
S'HMDB15152'
p920
sS'C00209'
p921
S'HMDB02329'
p922
sS'C07551'
p923
S'HMDB15430'
p924
sS'C07220'
p925
S'HMDB14523'
p926
sS'C07221'
p927
S'HMDB15083'
p928
sS'C12525'
p929
S'HMDB00493'
p930
sS'C16613'
p931
S'HMDB60417'
p932
sS'C07228'
p933
S'HMDB14624'
p934
sS'C00202'
p935
S'HMDB14815'
p936
sS'C00025'
p937
S'HMDB00148'
p938
sS'C06916'
p939
S'HMDB14774'
p940
sS'C00027'
p941
S'HMDB03125'
p942
sS'C06914'
p943
S'HMDB15321'
p944
sS'C06913'
p945
S'HMDB14428'
p946
sS'C06912'
p947
S'HMDB15342'
p948
sS'C09042'
p949
S'HMDB30361'
p950
sS'C00022'
p951
S'HMDB00243'
p952
sS'C16615'
p953
S'HMDB60414'
p954
sS'C00029'
p955
S'HMDB60079'
p956
sS'C06918'
p957
S'HMDB15372'
p958
sS'C16616'
p959
S'HMDB60660'
p960
sS'C10107'
p961
S'HMDB02755'
p962
sS'C05481'
p963
S'HMDB03128'
p964
sS'C10105'
p965
S'HMDB30796'
p966
sS'C05487'
p967
S'HMDB06762'
p968
sS'C05489'
p969
S'HMDB06760'
p970
sS'C01245'
p971
S'HMDB01498'
p972
sS'C11766'
p973
S'HMDB15124'
p974
sS'C11768'
p975
S'HMDB15652'
p976
sS'C17332'
p977
S'HMDB60425'
p978
sS'C07435'
p979
S'HMDB15061'
p980
sS'C14829'
p981
S'HMDB04705'
p982
sS'C03519'
p983
S'HMDB00512'
p984
sS'C15608'
p985
S'HMDB03075'
p986
sS'C15606'
p987
S'HMDB12134'
p988
sS'C15604'
p989
S'HMDB12157'
p990
sS'C04823'
p991
S'HMDB00797'
p992
sS'C13861'
p993
S'HMDB07102'
p994
sS'C13829'
p995
S'HMDB13626'
p996
sS'C01136'
p997
S'HMDB01526'
p998
sS'C01137'
p999
S'HMDB00988'
p1000
sS'C04453'
p1001
S'HMDB11606'
p1002
sS'C00077'
p1003
S'HMDB00214'
p1004
sS'C05901'
p1005
S'HMDB04215'
p1006
sS'C11196'
p1007
S'HMDB31804'
p1008
sS'C15513'
p1009
S'HMDB31310'
p1010
sS'C07151'
p1011
S'HMDB01921'
p1012
sS'C05903'
p1013
S'HMDB05801'
p1014
sS'C15515'
p1015
S'HMDB00811'
p1016
sS'C15518'
p1017
S'HMDB60136'
p1018
sS'C01172'
p1019
S'HMDB03498'
p1020
sS'C16512'
p1021
S'HMDB02100'
p1022
sS'C14641'
p1023
S'HMDB00918'
p1024
sS'C10190'
p1025
S'HMDB30539'
p1026
sS'C14643'
p1027
S'HMDB14398'
p1028
sS'C07886'
p1029
S'HMDB14627'
p1030
sS'C07887'
p1031
S'HMDB15137'
p1032
sS'C00805'
p1033
S'HMDB01895'
p1034
sS'C07888'
p1035
S'HMDB14672'
p1036
sS'C10676'
p1037
S'HMDB30195'
p1038
sS'C07428'
p1039
S'HMDB15253'
p1040
sS'C05118'
p1041
S'HMDB06869'
p1042
sS'C10966'
p1043
S'HMDB60573'
p1044
sS'C14244'
p1045
S'HMDB14738'
p1046
sS'C14240'
p1047
S'HMDB40270'
p1048
sS'C04520'
p1049
S'HMDB03848'
p1050
sS'C13914'
p1051
S'HMDB13645'
p1052
sS'C13916'
p1053
S'HMDB11773'
p1054
sS'C01004'
p1055
S'HMDB00875'
p1056
sS'C01005'
p1057
S'HMDB00272'
p1058
sS'C04853'
p1059
S'HMDB01509'
p1060
sS'C07846'
p1061
S'HMDB15285'
p1062
sS'C04856'
p1063
S'HMDB59644'
p1064
sS'C19609'
p1065
S'HMDB02457'
p1066
sS'C01794'
p1067
S'HMDB01374'
p1068
sS'C01796'
p1069
S'HMDB02649'
p1070
sS'C16603'
p1071
S'HMDB60673'
p1072
sS'C19603'
p1073
S'HMDB41953'
p1074
sS'C01799'
p1075
S'HMDB13716'
p1076
sS'C19607'
p1077
S'HMDB60519'
p1078
sS'C19605'
p1079
S'HMDB60383'
p1080
sS'C19604'
p1081
S'HMDB60422'
p1082
sS'C10812'
p1083
S'HMDB32612'
p1084
sS'C16420'
p1085
S'HMDB60384'
p1086
sS'C02110'
p1087
S'HMDB02152'
p1088
sS'C02442'
p1089
S'HMDB60284'
p1090
sS'C01484'
p1091
S'HMDB03066'
p1092
sS'C18042'
p1093
S'HMDB60409'
p1094
sS'C01481'
p1095
S'HMDB03501'
p1096
sS'C14487'
p1097
S'HMDB60580'
p1098
sS'C11199'
p1099
S'HMDB41852'
p1100
sS'C01864'
p1101
S'HMDB14693'
p1102
sS'C03648'
p1103
S'HMDB32322'
p1104
sS'C03640'
p1105
S'HMDB06482'
p1106
sS'C03642'
p1107
S'HMDB02580'
p1108
sS'C03273'
p1109
S'HMDB12233'
p1110
sS'C07235'
p1111
S'HMDB14753'
p1112
sS'C05925'
p1113
S'HMDB06824'
p1114
sS'C01230'
p1115
S'HMDB12188'
p1116
sS'C05923'
p1117
S'HMDB06821'
p1118
sS'C05922'
p1119
S'HMDB06822'
p1120
sS'C02201'
p1121
S'HMDB32138'
p1122
sS'C17560'
p1123
S'HMDB60354'
p1124
sS'C06212'
p1125
S'HMDB04369'
p1126
sS'C17561'
p1127
S'HMDB60353'
p1128
sS'C01260'
p1129
S'HMDB01211'
p1130
sS'C01261'
p1131
S'HMDB01340'
p1132
sS'C01262'
p1133
S'HMDB00194'
p1134
sS'C07236'
p1135
S'HMDB14621'
p1136
sS'C01265'
p1137
S'HMDB29263'
p1138
sS'C01267'
p1139
S'HMDB12236'
p1140
sS'C07231'
p1141
S'HMDB15574'
p1142
sS'C07546'
p1143
S'HMDB14347'
p1144
sS'C08272'
p1145
S'HMDB12245'
p1146
sS'C06424'
p1147
S'HMDB00806'
p1148
sS'C08605'
p1149
S'HMDB36869'
p1150
sS'C18555'
p1151
S'HMDB41340'
p1152
sS'C08604'
p1153
S'HMDB30684'
p1154
sS'C12269'
p1155
S'HMDB02393'
p1156
sS'C02060'
p1157
S'HMDB01359'
p1158
sS'C02067'
p1159
S'HMDB00767'
p1160
sS'C16643'
p1161
S'HMDB41936'
p1162
sS'C16641'
p1163
S'HMDB14900'
p1164
sS'C00234'
p1165
S'HMDB00972'
p1166
sS'C16648'
p1167
S'HMDB13897'
p1168
sS'C08279'
p1169
S'HMDB01470'
p1170
sS'C02845'
p1171
S'HMDB00474'
p1172
sS'C02660'
p1173
S'HMDB34273'
p1174
sS'C02846'
p1175
S'HMDB01020'
p1176
sS'C03793'
p1177
S'HMDB01325'
p1178
sS'C03242'
p1179
S'HMDB02925'
p1180
sS'C03794'
p1181
S'HMDB59653'
p1182
sS'C08018'
p1183
S'HMDB14640'
p1184
sS'C06541'
p1185
S'HMDB15221'
p1186
sS'C06543'
p1187
S'HMDB03236'
p1188
sS'C04216'
p1189
S'HMDB12187'
p1190
sS'C16558'
p1191
S'HMDB60693'
p1192
sS'C18733'
p1193
S'HMDB39815'
p1194
sS'C07091'
p1195
S'HMDB60461'
p1196
sS'C07090'
p1197
S'HMDB60503'
p1198
sS'C08012'
p1199
S'HMDB15358'
p1200
sS'C07092'
p1201
S'HMDB41971'
p1202
sS'C08014'
p1203
S'HMDB14992'
p1204
sS'C18739'
p1205
S'HMDB31794'
p1206
sS'C16556'
p1207
S'HMDB60588'
p1208
sS'C16348'
p1209
S'HMDB60458'
p1210
sS'C06429'
p1211
S'HMDB02183'
p1212
sS'C19397'
p1213
S'HMDB59855'
p1214
sS'C06428'
p1215
S'HMDB01999'
p1216
sS'C16346'
p1217
S'HMDB11108'
p1218
sS'C06967'
p1219
S'HMDB14979'
p1220
sS'C06145'
p1221
S'HMDB06853'
p1222
sS'C07768'
p1223
S'HMDB15107'
p1224
sS'C08499'
p1225
S'HMDB33857'
p1226
sS'C06142'
p1227
S'HMDB04327'
p1228
sS'C07763'
p1229
S'HMDB14912'
p1230
sS'C07761'
p1231
S'HMDB14599'
p1232
sS'C08497'
p1233
S'HMDB31496'
p1234
sS'C08490'
p1235
S'HMDB35601'
p1236
sS'C07766'
p1237
S'HMDB15419'
p1238
sS'C08492'
p1239
S'HMDB30003'
p1240
sS'C10928'
p1241
S'HMDB31766'
p1242
sS'C07168'
p1243
S'HMDB14969'
p1244
sS'C08304'
p1245
S'HMDB35762'
p1246
sS'C07164'
p1247
S'HMDB15517'
p1248
sS'C08306'
p1249
S'HMDB32323'
p1250
sS'C05274'
p1251
S'HMDB06404'
p1252
sS'C08652'
p1253
S'HMDB29249'
p1254
sS'C08650'
p1255
S'HMDB37316'
p1256
sS'C07785'
p1257
S'HMDB15216'
p1258
sS'C08472'
p1259
S'HMDB38577'
p1260
sS'C09306'
p1261
S'HMDB34834'
p1262
sS'C09305'
p1263
S'HMDB34272'
p1264
sS'C09627'
p1265
S'HMDB02352'
p1266
sS'C11512'
p1267
S'HMDB36583'
p1268
sS'C11510'
p1269
S'HMDB29643'
p1270
sS'C04322'
p1271
S'HMDB01301'
p1272
sS'C03264'
p1273
S'HMDB00624'
p1274
sS'C16238'
p1275
S'HMDB59635'
p1276
sS'C09871'
p1277
S'HMDB05812'
p1278
sS'C09870'
p1279
S'HMDB41264'
p1280
sS'C09873'
p1281
S'HMDB30089'
p1282
sS'C14809'
p1283
S'HMDB01977'
p1284
sS'C09875'
p1285
S'HMDB35851'
p1286
sS'C09877'
p1287
S'HMDB41634'
p1288
sS'C14802'
p1289
S'HMDB60332'
p1290
sS'C14803'
p1291
S'HMDB60330'
p1292
sS'C00526'
p1293
S'HMDB00012'
p1294
sS'C00835'
p1295
S'HMDB00238'
p1296
sS'C14806'
p1297
S'HMDB60326'
p1298
sS'C14807'
p1299
S'HMDB13633'
p1300
sS'C00830'
p1301
S'HMDB31522'
p1302
sS'C14805'
p1303
S'HMDB60327'
p1304
sS'C07309'
p1305
S'HMDB14632'
p1306
sS'C07921'
p1307
S'HMDB14903'
p1308
sS'C01024'
p1309
S'HMDB01137'
p1310
sS'C12739'
p1311
S'HMDB60406'
p1312
sS'C06341'
p1313
S'HMDB06281'
p1314
sS'C09275'
p1315
S'HMDB34269'
p1316
sS'C07051'
p1317
S'HMDB14369'
p1318
sS'C11289'
p1319
S'HMDB10358'
p1320
sS'C07438'
p1321
S'HMDB14337'
p1322
sS'C07437'
p1323
S'HMDB14970'
p1324
sS'C11285'
p1325
S'HMDB31810'
p1326
sS'C11284'
p1327
S'HMDB02096'
p1328
sS'C07432'
p1329
S'HMDB14968'
p1330
sS'C07430'
p1331
S'HMDB14918'
p1332
sS'C07927'
p1333
S'HMDB14539'
p1334
sS'C06847'
p1335
S'HMDB15374'
p1336
sS'C00788'
p1337
S'HMDB00068'
p1338
sS'C04377'
p1339
S'HMDB60401'
p1340
sS'C11356'
p1341
S'HMDB60108'
p1342
sS'C00780'
p1343
S'HMDB00259'
p1344
sS'C18043'
p1345
S'HMDB00653'
p1346
sS'C18040'
p1347
S'HMDB60407'
p1348
sS'C04376'
p1349
S'HMDB01308'
p1350
sS'C07257'
p1351
S'HMDB14365'
p1352
sS'C00785'
p1353
S'HMDB00301'
p1354
sS'C18044'
p1355
S'HMDB60382'
p1356
sS'C18045'
p1357
S'HMDB04611'
p1358
sS'C00238'
p1359
S'HMDB00586'
p1360
sS'C00239'
p1361
S'HMDB01202'
p1362
sS'C08276'
p1363
S'HMDB01527'
p1364
sS'C08277'
p1365
S'HMDB00792'
p1366
sS'C07547'
p1367
S'HMDB15330'
p1368
sS'C07230'
p1369
S'HMDB15555'
p1370
sS'C11195'
p1371
S'HMDB15335'
p1372
sS'C00230'
p1373
S'HMDB01856'
p1374
sS'C00231'
p1375
S'HMDB00868'
p1376
sS'C00232'
p1377
S'HMDB01259'
p1378
sS'C07548'
p1379
S'HMDB14870'
p1380
sS'C08278'
p1381
S'HMDB00893'
p1382
sS'C00235'
p1383
S'HMDB01120'
p1384
sS'C00237'
p1385
S'HMDB01361'
p1386
sS'C00010'
p1387
S'HMDB01423'
p1388
sS'C06963'
p1389
S'HMDB14592'
p1390
sS'C06960'
p1391
S'HMDB01927'
p1392
sS'C06961'
p1393
S'HMDB15361'
p1394
sS'C00014'
p1395
S'HMDB00051'
p1396
sS'C00015'
p1397
S'HMDB00295'
p1398
sS'C00016'
p1399
S'HMDB01248'
p1400
sS'C06965'
p1401
S'HMDB14425'
p1402
sS'C00018'
p1403
S'HMDB01491'
p1404
sS'C06969'
p1405
S'HMDB15007'
p1406
sS'C10482'
p1407
S'HMDB30801'
p1408
sS'C10480'
p1409
S'HMDB35873'
p1410
sS'C10486'
p1411
S'HMDB34125'
p1412
sS'C10487'
p1413
S'HMDB41140'
p1414
sS'C04485'
p1415
S'HMDB34454'
p1416
sS'C10172'
p1417
S'HMDB04827'
p1418
sS'C04147'
p1419
S'HMDB60068'
p1420
sS'C04144'
p1421
S'HMDB12290'
p1422
sS'C10174'
p1423
S'HMDB29374'
p1424
sS'C00860'
p1425
S'HMDB03431'
p1426
sS'C04483'
p1427
S'HMDB00626'
p1428
sS'C07416'
p1429
S'HMDB15447'
p1430
sS'C18897'
p1431
S'HMDB31808'
p1432
sS'C04148'
p1433
S'HMDB06344'
p1434
sS'C00305'
p1435
S'HMDB00547'
p1436
sS'C00306'
p1437
S'HMDB04246'
p1438
sS'C00307'
p1439
S'HMDB01413'
p1440
sS'C00300'
p1441
S'HMDB00064'
p1442
sS'C00302'
p1443
S'HMDB60475'
p1444
sS'C00308'
p1445
S'HMDB02706'
p1446
sS'C15673'
p1447
S'HMDB11732'
p1448
sS'C12296'
p1449
S'HMDB31528'
p1450
sS'C02165'
p1451
S'HMDB01085'
p1452
sS'C13856'
p1453
S'HMDB04666'
p1454
sS'C09696'
p1455
S'HMDB35896'
p1456
sS'C01127'
p1457
S'HMDB02070'
p1458
sS'C01126'
p1459
S'HMDB04305'
p1460
sS'C01124'
p1461
S'HMDB00319'
p1462
sS'C05140'
p1463
S'HMDB06774'
p1464
sS'C05143'
p1465
S'HMDB60471'
p1466
sS'C05145'
p1467
S'HMDB03911'
p1468
sS'C14079'
p1469
S'HMDB37953'
p1470
sS'C00655'
p1471
S'HMDB01554'
p1472
sS'C01913'
p1473
S'HMDB32287'
p1474
sS'C07864'
p1475
S'HMDB05026'
p1476
sS'C07890'
p1477
S'HMDB14356'
p1478
sS'C01017'
p1479
S'HMDB00472'
p1480
sS'C01015'
p1481
S'HMDB06055'
p1482
sS'C01013'
p1483
S'HMDB00700'
p1484
sS'C07826'
p1485
S'HMDB15441'
p1486
sS'C01019'
p1487
S'HMDB00174'
p1488
sS'C05819'
p1489
S'HMDB60487'
p1490
sS'C07549'
p1491
S'HMDB15266'
p1492
sS'C00918'
p1493
S'HMDB14589'
p1494
sS'C17125'
p1495
S'HMDB34972'
p1496
sS'C14089'
p1497
S'HMDB60322'
p1498
sS'C16434'
p1499
S'HMDB33923'
p1500
sS'C13635'
p1501
S'HMDB29657'
p1502
sS'C01301'
p1503
S'HMDB03533'
p1504
sS'C13637'
p1505
S'HMDB29306'
p1506
sS'C07949'
p1507
S'HMDB14468'
p1508
sS'C06044'
p1509
S'HMDB04284'
p1510
sS'C01659'
p1511
S'HMDB04296'
p1512
sS'C02471'
p1513
S'HMDB00125'
p1514
sS'C05313'
p1515
S'HMDB00977'
p1516
sS'C07943'
p1517
S'HMDB12226'
p1518
sS'C07941'
p1519
S'HMDB14948'
p1520
sS'C02477'
p1521
S'HMDB01893'
p1522
sS'C06501'
p1523
S'HMDB06049'
p1524
sS'C01495'
p1525
S'HMDB31816'
p1526
sS'C01494'
p1527
S'HMDB00954'
p1528
sS'C08739'
p1529
S'HMDB30144'
p1530
sS'C14497'
p1531
S'HMDB06259'
p1532
sS'C00251'
p1533
S'HMDB12199'
p1534
sS'C01879'
p1535
S'HMDB00267'
p1536
sS'C18706'
p1537
S'HMDB32179'
p1538
sS'C00898'
p1539
S'HMDB59916'
p1540
sS'C01871'
p1541
S'HMDB31474'
p1542
sS'C01875'
p1543
S'HMDB33713'
p1544
sS'C03659'
p1545
S'HMDB31437'
p1546
sS'C02781'
p1547
S'HMDB12327'
p1548
sS'C02787'
p1549
S'HMDB34198'
p1550
sS'C15858'
p1551
S'HMDB35776'
p1552
sS'C15857'
p1553
S'HMDB03063'
p1554
sS'C03656'
p1555
S'HMDB12131'
p1556
sS'C17630'
p1557
S'HMDB37658'
p1558
sS'C17631'
p1559
S'HMDB37672'
p1560
sS'C17632'
p1561
S'HMDB37673'
p1562
sS'C17633'
p1563
S'HMDB37669'
p1564
sS'C05956'
p1565
S'HMDB03235'
p1566
sS'C05957'
p1567
S'HMDB02710'
p1568
sS'C02274'
p1569
S'HMDB36626'
p1570
sS'C05955'
p1571
S'HMDB60095'
p1572
sS'C06202'
p1573
S'HMDB34170'
p1574
sS'C02278'
p1575
S'HMDB33933'
p1576
sS'C05959'
p1577
S'HMDB10199'
p1578
sS'C06206'
p1579
S'HMDB60440'
p1580
sS'C06205'
p1581
S'HMDB60335'
p1582
sS'C03404'
p1583
S'HMDB29217'
p1584
sS'C13707'
p1585
S'HMDB15180'
p1586
sS'C08732'
p1587
S'HMDB30071'
p1588
sS'C08434'
p1589
S'HMDB02099'
p1590
sS'C00599'
p1591
S'HMDB00921'
p1592
sS'C18543'
p1593
S'HMDB41341'
p1594
sS'C07617'
p1595
S'HMDB14501'
p1596
sS'C04242'
p1597
S'HMDB60394'
p1598
sS'C17756'
p1599
S'HMDB12992'
p1600
sS'C17755'
p1601
S'HMDB12219'
p1602
sS'C07543'
p1603
S'HMDB15383'
p1604
sS'C05201'
p1605
S'HMDB04087'
p1606
sS'C16655'
p1607
S'HMDB60683'
p1608
sS'C16654'
p1609
S'HMDB13903'
p1610
sS'C01120'
p1611
S'HMDB01383'
p1612
sS'C16651'
p1613
S'HMDB13899'
p1614
sS'C16650'
p1615
S'HMDB13898'
p1616
sS'C16653'
p1617
S'HMDB13902'
p1618
sS'C16652'
p1619
S'HMDB60685'
p1620
sS'C02097'
p1621
S'HMDB06876'
p1622
sS'C09231'
p1623
S'HMDB30327'
p1624
sS'C02095'
p1625
S'HMDB03081'
p1626
sS'C16658'
p1627
S'HMDB60684'
p1628
sS'C02090'
p1629
S'HMDB60520'
p1630
sS'C19490'
p1631
S'HMDB60517'
p1632
sS'C02656'
p1633
S'HMDB00857'
p1634
sS'C07649'
p1635
S'HMDB14684'
p1636
sS'C10247'
p1637
S'HMDB32641'
p1638
sS'C02659'
p1639
S'HMDB60427'
p1640
sS'C02305'
p1641
S'HMDB01511'
p1642
sS'C03785'
p1643
S'HMDB06872'
p1644
sS'C01151'
p1645
S'HMDB11688'
p1646
sS'C06559'
p1647
S'HMDB33249'
p1648
sS'C07565'
p1649
S'HMDB01250'
p1650
sS'C18729'
p1651
S'HMDB31790'
p1652
sS'C06554'
p1653
S'HMDB41861'
p1654
sS'C06551'
p1655
S'HMDB41830'
p1656
sS'C08257'
p1657
S'HMDB34221'
p1658
sS'C02896'
p1659
S'HMDB60243'
p1660
sS'C05455'
p1661
S'HMDB01993'
p1662
sS'C00011'
p1663
S'HMDB01967'
p1664
sS'C02480'
p1665
S'HMDB06331'
p1666
sS'C14778'
p1667
S'HMDB04680'
p1668
sS'C07566'
p1669
S'HMDB15232'
p1670
sS'C17917'
p1671
S'HMDB40906'
p1672
sS'C17916'
p1673
S'HMDB40938'
p1674
sS'C19122'
p1675
S'HMDB31489'
p1676
sS'C08480'
p1677
S'HMDB33528'
p1678
sS'C08487'
p1679
S'HMDB38962'
p1680
sS'C08486'
p1681
S'HMDB36599'
p1682
sS'C08484'
p1683
S'HMDB40920'
p1684
sS'C05668'
p1685
S'HMDB06807'
p1686
sS'C07915'
p1687
S'HMDB15345'
p1688
sS'C14775'
p1689
S'HMDB02265'
p1690
sS'C08313'
p1691
S'HMDB00466'
p1692
sS'C18150'
p1693
S'HMDB59812'
p1694
sS'C08647'
p1695
S'HMDB37977'
p1696
sS'C07153'
p1697
S'HMDB14339'
p1698
sS'C08317'
p1699
S'HMDB02059'
p1700
sS'C08316'
p1701
S'HMDB02068'
p1702
sS'C07156'
p1703
S'HMDB14794'
p1704
sS'C08464'
p1705
S'HMDB35400'
p1706
sS'C16241'
p1707
S'HMDB01451'
p1708
sS'C16247'
p1709
S'HMDB32080'
p1710
sS'C01822'
p1711
S'HMDB15303'
p1712
sS'C05337'
p1713
S'HMDB06292'
p1714
sS'C07334'
p1715
S'HMDB14851'
p1716
sS'C14818'
p1717
S'HMDB00692'
p1718
sS'C07336'
p1719
S'HMDB15528'
p1720
sS'C00829'
p1721
S'HMDB29751'
p1722
sS'C09849'
p1723
S'HMDB35093'
p1724
sS'C14811'
p1725
S'HMDB01965'
p1726
sS'C00532'
p1727
S'HMDB01851'
p1728
sS'C00531'
p1729
S'HMDB03377'
p1730
sS'C00530'
p1731
S'HMDB02434'
p1732
sS'C09840'
p1733
S'HMDB35770'
p1734
sS'C00536'
p1735
S'HMDB12282'
p1736
sS'C00535'
p1737
S'HMDB00234'
p1738
sS'C00822'
p1739
S'HMDB01229'
p1740
sS'C08007'
p1741
S'HMDB15057'
p1742
sS'C08283'
p1743
S'HMDB33433'
p1744
sS'C08005'
p1745
S'HMDB14940'
p1746
sS'C14813'
p1747
S'HMDB04693'
p1748
sS'C03323'
p1749
S'HMDB29898'
p1750
sS'C06790'
p1751
S'HMDB29593'
p1752
sS'C07443'
p1753
S'HMDB14397'
p1754
sS'C07440'
p1755
S'HMDB14950'
p1756
sS'C07441'
p1757
S'HMDB02182'
p1758
sS'C05790'
p1759
S'HMDB01898'
p1760
sS'C09815'
p1761
S'HMDB04461'
p1762
sS'C07445'
p1763
S'HMDB15095'
p1764
sS'C00797'
p1765
S'HMDB13231'
p1766
sS'C00796'
p1767
S'HMDB14411'
p1768
sS'C00268'
p1769
S'HMDB02215'
p1770
sS'C00793'
p1771
S'HMDB03417'
p1772
sS'C05998'
p1773
S'HMDB06870'
p1774
sS'C00791'
p1775
S'HMDB00562'
p1776
sS'C07618'
p1777
S'HMDB15446'
p1778
sS'C05554'
p1779
S'HMDB04051'
p1780
sS'C00798'
p1781
S'HMDB03419'
p1782
sS'C00227'
p1783
S'HMDB01494'
p1784
sS'C00225'
p1785
S'HMDB33121'
p1786
sS'C00224'
p1787
S'HMDB01003'
p1788
sS'C11368'
p1789
S'HMDB14509'
p1790
sS'C00222'
p1791
S'HMDB11111'
p1792
sS'C00221'
p1793
S'HMDB00516'
p1794
sS'C06080'
p1795
S'HMDB04304'
p1796
sS'C16884'
p1797
S'HMDB04136'
p1798
sS'C14172'
p1799
S'HMDB14616'
p1800
sS'C04025'
p1801
S'HMDB00691'
p1802
sS'C08262'
p1803
S'HMDB00718'
p1804
sS'C08261'
p1805
S'HMDB00784'
p1806
sS'C07203'
p1807
S'HMDB15052'
p1808
sS'C07204'
p1809
S'HMDB14681'
p1810
sS'C07205'
p1811
S'HMDB15146'
p1812
sS'C11168'
p1813
S'HMDB15592'
p1814
sS'C07207'
p1815
S'HMDB15078'
p1816
sS'C07208'
p1817
S'HMDB59810'
p1818
sS'C07209'
p1819
S'HMDB29637'
p1820
sS'C08269'
p1821
S'HMDB29412'
p1822
sS'C11386'
p1823
S'HMDB35094'
p1824
sS'C06970'
p1825
S'HMDB14728'
p1826
sS'C11384'
p1827
S'HMDB35842'
p1828
sS'C00509'
p1829
S'HMDB02670'
p1830
sS'C06975'
p1831
S'HMDB15190'
p1832
sS'C11383'
p1833
S'HMDB04487'
p1834
sS'C00009'
p1835
S'HMDB02142'
p1836
sS'C00008'
p1837
S'HMDB01341'
p1838
sS'C06979'
p1839
S'HMDB14610'
p1840
sS'C06978'
p1841
S'HMDB15359'
p1842
sS'C00004'
p1843
S'HMDB01487'
p1844
sS'C00003'
p1845
S'HMDB00902'
p1846
sS'C00002'
p1847
S'HMDB00538'
p1848
sS'C00001'
p1849
S'HMDB02111'
p1850
sS'C11389'
p1851
S'HMDB36102'
p1852
sS'C10490'
p1853
S'HMDB33591'
p1854
sS'C00913'
p1855
S'HMDB11600'
p1856
sS'C00818'
p1857
g90
sS'C15441'
p1858
S'HMDB00610'
p1859
sS'C10160'
p1860
S'HMDB30386'
p1861
sS'C10164'
p1862
S'HMDB02243'
p1863
sS'C10166'
p1864
S'HMDB30341'
p1865
sS'C00644'
p1866
S'HMDB05831'
p1867
sS'C00311'
p1868
S'HMDB00193'
p1869
sS'C00310'
p1870
S'HMDB03371'
p1871
sS'C00317'
p1872
S'HMDB03255'
p1873
sS'C00315'
p1874
S'HMDB01257'
p1875
sS'C00314'
p1876
S'HMDB00239'
p1877
sS'C00318'
p1878
S'HMDB00062'
p1879
sS'C07550'
p1880
S'HMDB15357'
p1881
sS'C15668'
p1882
S'HMDB60246'
p1883
sS'C00178'
p1884
S'HMDB00262'
p1885
sS'C11941'
p1886
S'HMDB35743'
p1887
sS'C05176'
p1888
S'HMDB60319'
p1889
sS'C14396'
p1890
S'HMDB34029'
p1891
sS'C05172'
p1892
S'HMDB03840'
p1893
sS'C14395'
p1894
S'HMDB59899'
p1895
sS'C13846'
p1896
S'HMDB34146'
p1897
sS'C06561'
p1898
S'HMDB29631'
p1899
sS'C12616'
p1900
S'HMDB14802'
p1901
sS'C16679'
p1902
S'HMDB61095'
p1903
sS'C05770'
p1904
S'HMDB00570'
p1905
sS'C05771'
p1906
S'HMDB12136'
p1907
sS'C09423'
p1908
S'HMDB30259'
p1909
sS'C11016'
p1910
S'HMDB32562'
p1911
sS'C16677'
p1912
S'HMDB06254'
p1913
sS'C10018'
p1914
S'HMDB30832'
p1915
sS'C10545'
p1916
S'HMDB30087'
p1917
sS'C10947'
p1918
S'HMDB31802'
p1919
sS'C12834'
p1920
S'HMDB60364'
p1921
sS'C01478'
p1922
S'HMDB12190'
p1923
sS'C16535'
p1924
S'HMDB00772'
p1925
sS'C16536'
p1926
S'HMDB31046'
p1927
sS'C16537'
p1928
S'HMDB00826'
p1929
sS'C00328'
p1930
S'HMDB00684'
p1931
sS'C01062'
p1932
S'HMDB11731'
p1933
sS'C01060'
p1934
S'HMDB03474'
p1935
sS'C01061'
p1936
S'HMDB01268'
p1937
sS'C04548'
p1938
S'HMDB04826'
p1939
sS'C05010'
p1940
S'HMDB28889'
p1941
sS'C01561'
p1942
S'HMDB03550'
p1943
sS'C09731'
p1944
S'HMDB03153'
p1945
sS'C00282'
p1946
S'HMDB01362'
p1947
sS'C00322'
p1948
S'HMDB00225'
p1949
sS'C14718'
p1950
S'HMDB34462'
p1951
sS'C14717'
p1952
S'HMDB05079'
p1953
sS'C14710'
p1954
S'HMDB06006'
p1955
sS'C14335'
p1956
S'HMDB42002'
p1957
sS'C14536'
p1958
S'HMDB05781'
p1959
sS'C14533'
p1960
S'HMDB13733'
p1961
sS'C12838'
p1962
S'HMDB60518'
p1963
sS'C02466'
p1964
S'HMDB59921'
p1965
sS'C02465'
p1966
S'HMDB00265'
p1967
sS'C05302'
p1968
S'HMDB00405'
p1969
sS'C05301'
p1970
S'HMDB00338'
p1971
sS'C10833'
p1972
S'HMDB02085'
p1973
sS'C10379'
p1974
S'HMDB33790'
p1975
sS'C02469'
p1976
S'HMDB00916'
p1977
sS'C02323'
p1978
S'HMDB59709'
p1979
sS'C13624'
p1980
S'HMDB32133'
p1981
sS'C07931'
p1982
S'HMDB14500'
p1983
sS'C01661'
p1984
S'HMDB15132'
p1985
sS'C07934'
p1986
S'HMDB14798'
p1987
sS'C07935'
p1988
S'HMDB15304'
p1989
sS'C00048'
p1990
S'HMDB00119'
p1991
sS'C04494'
p1992
S'HMDB60480'
p1993
sS'C01468'
p1994
S'HMDB01858'
p1995
sS'C01405'
p1996
S'HMDB01879'
p1997
sS'C04498'
p1998
S'HMDB33460'
p1999
sS'C01467'
p2000
S'HMDB02048'
p2001
sS'C01685'
p2002
S'HMDB00867'
p2003
sS'C06538'
p2004
S'HMDB30311'
p2005
sS'C09884'
p2006
S'HMDB35761'
p2007
sS'C01688'
p2008
g654
sS'C00836'
p2009
S'HMDB00269'
p2010
sS'C02794'
p2011
S'HMDB00732'
p2012
sS'C01403'
p2013
S'HMDB33895'
p2014
sS'C02261'
p2015
S'HMDB00650'
p2016
sS'C07844'
p2017
S'HMDB14617'
p2018
sS'C05942'
p2019
S'HMDB04230'
p2020
sS'C07840'
p2021
S'HMDB15417'
p2022
sS'C02266'
p2023
S'HMDB11676'
p2024
sS'C05949'
p2025
S'HMDB04234'
p2026
sS'C17626'
p2027
S'HMDB37659'
p2028
sS'C17625'
p2029
S'HMDB37661'
p2030
sS'C16968'
p2031
S'HMDB33882'
p2032
sS'C17620'
p2033
S'HMDB41376'
p2034
sS'C14319'
p2035
S'HMDB15623'
p2036
sS'C13715'
p2037
S'HMDB35080'
p2038
sS'C13713'
p2039
S'HMDB00879'
p2040
sS'C06533'
p2041
S'HMDB15245'
p2042
sS'C01205'
p2043
S'HMDB02299'
p2044
sS'C18533'
p2045
S'HMDB32710'
p2046
sS'C07487'
p2047
S'HMDB15534'
p2048
sS'C04227'
p2049
S'HMDB04825'
p2050
sS'C17061'
p2051
S'HMDB01327'
p2052
sS'C17726'
p2053
S'HMDB00415'
p2054
sS'C17727'
p2055
S'HMDB00364'
p2056
sS'C17725'
p2057
S'HMDB15443'
p2058
sS'C06098'
p2059
S'HMDB02789'
p2060
sS'C06099'
p2061
S'HMDB04321'
p2062
sS'C16660'
p2063
S'HMDB60672'
p2064
sS'C03220'
p2065
S'HMDB59849'
p2066
sS'C03221'
p2067
S'HMDB11689'
p2068
sS'C03226'
p2069
S'HMDB60370'
p2070
sS'C03227'
p2071
S'HMDB11631'
p2072
sS'C16666'
p2073
S'HMDB12309'
p2074
sS'C16667'
p2075
S'HMDB07008'
p2076
sS'C06308'
p2077
S'HMDB35658'
p2078
sS'C01844'
p2079
S'HMDB05022'
p2080
sS'C01845'
p2081
S'HMDB00863'
p2082
sS'C01514'
p2083
S'HMDB05800'
p2084
sS'C10283'
p2085
S'HMDB35478'
p2086
sS'C10205'
p2087
S'HMDB02326'
p2088
sS'C19489'
p2089
S'HMDB60341'
p2090
sS'C02646'
p2091
S'HMDB03654'
p2092
sS'C02642'
p2093
S'HMDB00026'
p2094
sS'C02640'
p2095
S'HMDB31659'
p2096
sS'C10207'
p2097
S'HMDB33983'
p2098
sS'C04236'
p2099
S'HMDB12149'
p2100
sS'C06521'
p2101
S'HMDB30290'
p2102
sS'C06524'
p2103
S'HMDB01126'
p2104
sS'C18992'
p2105
S'HMDB32554'
p2106
sS'C18447'
p2107
S'HMDB31524'
p2108
sS'C18442'
p2109
S'HMDB34859'
p2110
sS'C02888'
p2111
S'HMDB06797'
p2112
sS'C07147'
p2113
S'HMDB14935'
p2114
sS'C07146'
p2115
S'HMDB14748'
p2116
sS'C07144'
p2117
S'HMDB14954'
p2118
sS'C07143'
p2119
S'HMDB15068'
p2120
sS'C07142'
p2121
S'HMDB15189'
p2122
sS'C17438'
p2123
S'HMDB02367'
p2124
sS'C07140'
p2125
S'HMDB14353'
p2126
sS'C17925'
p2127
S'HMDB02832'
p2128
sS'C17435'
p2129
S'HMDB60469'
p2130
sS'C17432'
p2131
S'HMDB59616'
p2132
sS'C07149'
p2133
S'HMDB14643'
p2134
sS'C07148'
p2135
S'HMDB15256'
p2136
sS'C03680'
p2137
S'HMDB01014'
p2138
sS'C03681'
p2139
S'HMDB03759'
p2140
sS'C03684'
p2141
S'HMDB01195'
p2142
sS'C07254'
p2143
S'HMDB02725'
p2144
sS'C03134'
p2145
S'HMDB01888'
p2146
sS'C06413'
p2147
S'HMDB33731'
p2148
sS'C06688'
p2149
S'HMDB15179'
p2150
sS'C09980'
p2151
S'HMDB34144'
p2152
sS'C09982'
p2153
S'HMDB30812'
p2154
sS'C08103'
p2155
S'HMDB14419'
p2156
sS'C00601'
p2157
S'HMDB06236'
p2158
sS'C07131'
p2159
S'HMDB14868'
p2160
sS'C14820'
p2161
S'HMDB04696'
p2162
sS'C11577'
p2163
S'HMDB29522'
p2164
sS'C14823'
p2165
S'HMDB04699'
p2166
sS'C18663'
p2167
S'HMDB31805'
p2168
sS'C18660'
p2169
S'HMDB31793'
p2170
sS'C18661'
p2171
S'HMDB31800'
p2172
sS'C14828'
p2173
S'HMDB04704'
p2174
sS'C18667'
p2175
S'HMDB31803'
p2176
sS'C07323'
p2177
S'HMDB15380'
p2178
sS'C07322'
p2179
S'HMDB05012'
p2180
sS'C08580'
p2181
S'HMDB02204'
p2182
sS'C07320'
p2183
S'HMDB15008'
p2184
sS'C07326'
p2185
S'HMDB02712'
p2186
sS'C07325'
p2187
S'HMDB05035'
p2188
sS'C08585'
p2189
S'HMDB36924'
p2190
sS'C00811'
p2191
S'HMDB02035'
p2192
sS'C07329'
p2193
S'HMDB06478'
p2194
sS'C08589'
p2195
S'HMDB02398'
p2196
sS'C00814'
p2197
S'HMDB02338'
p2198
sS'C00815'
p2199
S'HMDB00426'
p2200
sS'C08073'
p2201
S'HMDB14964'
p2202
sS'C07827'
p2203
S'HMDB14382'
p2204
sS'C11230'
p2205
S'HMDB14588'
p2206
sS'C12144'
p2207
S'HMDB04610'
p2208
sS'C00606'
p2209
S'HMDB60179'
p2210
sS'C07459'
p2211
S'HMDB15275'
p2212
sS'C07458'
p2213
S'HMDB14404'
p2214
sS'C05789'
p2215
S'HMDB04157'
p2216
sS'C12978'
p2217
S'HMDB01569'
p2218
sS'C07450'
p2219
S'HMDB14771'
p2220
sS'C07453'
p2221
S'HMDB41888'
p2222
sS'C07452'
p2223
S'HMDB14835'
p2224
sS'C07455'
p2225
S'HMDB14865'
p2226
sS'C07457'
p2227
S'HMDB01382'
p2228
sS'C07456'
p2229
S'HMDB15021'
p2230
sS'C04015'
p2231
S'HMDB00796'
p2232
sS'C18066'
p2233
S'HMDB40330'
p2234
sS'C10429'
p2235
S'HMDB33776'
p2236
sS'C18060'
p2237
S'HMDB59626'
p2238
sS'C05548'
p2239
S'HMDB12150'
p2240
sS'C03917'
p2241
S'HMDB02961'
p2242
sS'C11718'
p2243
S'HMDB15565'
p2244
sS'C00252'
p2245
S'HMDB02923'
p2246
sS'C00253'
p2247
S'HMDB01488'
p2248
sS'C00250'
p2249
S'HMDB01545'
p2250
sS'C11378'
p2251
S'HMDB01072'
p2252
sS'C00256'
p2253
S'HMDB01311'
p2254
sS'C00257'
p2255
S'HMDB00625'
p2256
sS'C18260'
p2257
S'HMDB60337'
p2258
sS'C18261'
p2259
S'HMDB60321'
p2260
sS'C11372'
p2261
S'HMDB14438'
p2262
sS'C00258'
p2263
S'HMDB00139'
p2264
sS'C00259'
p2265
S'HMDB00646'
p2266
sS'C11376'
p2267
S'HMDB60511'
p2268
sS'C00137'
p2269
S'HMDB00211'
p2270
sS'C00497'
p2271
S'HMDB31518'
p2272
sS'C00490'
p2273
S'HMDB02092'
p2274
sS'C00491'
p2275
S'HMDB00192'
p2276
sS'C07219'
p2277
S'HMDB05023'
p2278
sS'C07218'
p2279
S'HMDB14460'
p2280
sS'C07215'
p2281
S'HMDB02340'
p2282
sS'C07214'
p2283
S'HMDB29636'
p2284
sS'C00498'
p2285
S'HMDB06557'
p2286
sS'C00499'
p2287
S'HMDB01209'
p2288
sS'C11173'
p2289
S'HMDB60510'
p2290
sS'C07210'
p2291
S'HMDB14638'
p2292
sS'C11395'
p2293
S'HMDB36082'
p2294
sS'C00078'
p2295
S'HMDB00929'
p2296
sS'C00079'
p2297
S'HMDB00159'
p2298
sS'C11391'
p2299
S'HMDB34970'
p2300
sS'C11390'
p2301
S'HMDB35783'
p2302
sS'C11393'
p2303
S'HMDB36086'
p2304
sS'C11392'
p2305
S'HMDB41633'
p2306
sS'C00072'
p2307
S'HMDB00044'
p2308
sS'C00073'
p2309
S'HMDB00696'
p2310
sS'C02028'
p2311
g1802
sS'C00076'
p2312
S'HMDB00464'
p2313
sS'C06941'
p2314
S'HMDB14843'
p2315
sS'C00074'
p2316
S'HMDB00263'
p2317
sS'C06943'
p2318
S'HMDB15282'
p2319
sS'C09789'
p2320
S'HMDB02927'
p2321
sS'C00023'
p2322
S'HMDB15531'
p2323
sS'C02470'
p2324
S'HMDB00881'
p2325
sS'C00547'
p2326
S'HMDB00216'
p2327
sS'C11713'
p2328
S'HMDB12322'
p2329
sS'C11715'
p2330
S'HMDB15607'
p2331
sS'C11714'
p2332
S'HMDB12138'
p2333
sS'C00106'
p2334
S'HMDB00300'
p2335
sS'C15497'
p2336
S'HMDB11648'
p2337
sS'C00105'
p2338
S'HMDB00288'
p2339
sS'C15492'
p2340
S'HMDB11618'
p2341
sS'C15493'
p2342
S'HMDB02369'
p2343
sS'C00100'
p2344
S'HMDB01275'
p2345
sS'C00108'
p2346
S'HMDB01123'
p2347
sS'C00109'
p2348
S'HMDB00005'
p2349
sS'C14383'
p2350
S'HMDB00406'
p2351
sS'C14386'
p2352
S'HMDB59873'
p2353
sS'C05639'
p2354
S'HMDB04077'
p2355
sS'C05767'
p2356
S'HMDB00936'
p2357
sS'C06899'
p2358
S'HMDB60451'
p2359
sS'C08929'
p2360
S'HMDB30635'
p2361
sS'C06890'
p2362
S'HMDB15427'
p2363
sS'C06896'
p2364
S'HMDB15270'
p2365
sS'C05768'
p2366
S'HMDB02158'
p2367
sS'C06894'
p2368
S'HMDB15244'
p2369
sS'C06895'
p2370
S'HMDB14707'
p2371
sS'C10028'
p2372
S'HMDB36619'
p2373
sS'C10029'
p2374
S'HMDB36620'
p2375
sS'C11001'
p2376
S'HMDB32782'
p2377
sS'C08114'
p2378
S'HMDB15486'
p2379
sS'C10534'
p2380
S'HMDB42024'
p2381
sS'C16522'
p2382
S'HMDB60039'
p2383
sS'C16527'
p2384
S'HMDB02226'
p2385
sS'C16526'
p2386
S'HMDB02231'
p2387
sS'C16525'
p2388
S'HMDB05060'
p2389
sS'C04555'
p2390
S'HMDB01032'
p2391
sS'C01079'
p2392
S'HMDB01097'
p2393
sS'C08737'
p2394
S'HMDB41922'
p2395
sS'C01499'
p2396
S'HMDB35092'
p2397
sS'C11918'
p2398
S'HMDB30776'
p2399
sS'C09727'
p2400
S'HMDB01871'
p2401
sS'C09720'
p2402
S'HMDB30232'
p2403
sS'C04794'
p2404
S'HMDB60071'
p2405
sS'C09729'
p2406
S'HMDB13693'
p2407
sS'C09728'
p2408
S'HMDB37954'
p2409
sS'C10447'
p2410
S'HMDB00423'
p2411
sS'C10445'
p2412
S'HMDB30093'
p2413
sS'C15650'
p2414
S'HMDB59620'
p2415
sS'C02838'
p2416
S'HMDB00791'
p2417
sS'C14704'
p2418
S'HMDB31419'
p2419
sS'C15658'
p2420
S'HMDB11668'
p2421
sS'C10449'
p2422
S'HMDB30725'
p2423
sS'C16417'
p2424
S'HMDB37479'
p2425
sS'C16416'
p2426
S'HMDB30610'
p2427
sS'C14527'
p2428
S'HMDB32385'
p2429
sS'C14521'
p2430
S'HMDB32079'
p2431
sS'C14523'
p2432
S'HMDB41613'
p2433
sS'C14522'
p2434
S'HMDB59848'
p2435
sS'C04256'
p2436
S'HMDB01367'
p2437
sS'C05377'
p2438
S'HMDB01892'
p2439
sS'C05378'
p2440
S'HMDB60444'
p2441
sS'C05379'
p2442
S'HMDB03974'
p2443
sS'C07928'
p2444
S'HMDB14994'
p2445
sS'C01678'
p2446
S'HMDB60150'
p2447
sS'C17384'
p2448
S'HMDB35841'
p2449
sS'C01673'
p2450
S'HMDB01903'
p2451
sS'C01672'
p2452
S'HMDB02322'
p2453
sS'C19238'
p2454
S'HMDB33978'
p2455
sS'C01675'
p2456
S'HMDB15535'
p2457
sS'C01479'
p2458
S'HMDB14712'
p2459
sS'C00962'
p2460
S'HMDB03449'
p2461
sS'C04489'
p2462
S'HMDB12177'
p2463
sS'C04486'
p2464
S'HMDB34453'
p2465
sS'C01477'
p2466
S'HMDB02124'
p2467
sS'C01471'
p2468
S'HMDB41822'
p2469
sS'C01697'
p2470
S'HMDB00107'
p2471
sS'C01691'
p2472
S'HMDB14999'
p2473
sS'C01690'
p2474
S'HMDB14724'
p2475
sS'C01692'
p2476
S'HMDB14960'
p2477
sS'C00044'
p2478
S'HMDB01273'
p2479
sS'C01699'
p2480
S'HMDB03559'
p2481
sS'C16700'
p2482
S'HMDB59965'
p2483
sS'C17658'
p2484
S'HMDB00717'
p2485
sS'C07328'
p2486
S'HMDB06007'
p2487
sS'C07851'
p2488
S'HMDB14527'
p2489
sS'C05979'
p2490
S'HMDB00820'
p2491
sS'C02528'
p2492
S'HMDB00518'
p2493
sS'C07852'
p2494
S'HMDB41999'
p2495
sS'C05202'
p2496
S'HMDB06921'
p2497
sS'C05200'
p2498
S'HMDB01063'
p2499
sS'C15435'
p2500
S'HMDB31788'
p2501
sS'C00053'
p2502
S'HMDB01134'
p2503
sS'C09908'
p2504
S'HMDB01878'
p2505
sS'C01210'
p2506
S'HMDB60173'
p2507
sS'C13766'
p2508
S'HMDB12224'
p2509
sS'C01217'
p2510
S'HMDB60403'
p2511
sS'C01216'
p2512
S'HMDB01353'
p2513
sS'C19588'
p2514
S'HMDB60430'
p2515
sS'C05995'
p2516
S'HMDB04256'
p2517
sS'C05993'
p2518
S'HMDB06880'
p2519
sS'C00410'
p2520
S'HMDB01830'
p2521
sS'C19586'
p2522
S'HMDB06558'
p2523
sS'C06081'
p2524
g1460
sS'C19039'
p2525
S'HMDB31799'
p2526
sS'C06083'
p2527
S'HMDB06836'
p2528
sS'C00412'
p2529
S'HMDB01114'
p2530
sS'C19033'
p2531
S'HMDB36574'
p2532
sS'C03232'
p2533
S'HMDB01024'
p2534
sS'C06315'
p2535
S'HMDB05082'
p2536
sS'C06314'
p2537
S'HMDB04385'
p2538
sS'C06317'
p2539
S'HMDB32012'
p2540
sS'C16678'
p2541
S'HMDB06285'
p2542
sS'C03239'
p2543
S'HMDB12151'
p2544
sS'C03238'
p2545
S'HMDB00871'
p2546
sS'C16675'
p2547
S'HMDB11690'
p2548
sS'C15853'
p2549
S'HMDB60275'
p2550
sS'C01504'
p2551
S'HMDB59602'
p2552
sS'C01850'
p2553
S'HMDB03572'
p2554
sS'C01857'
p2555
S'HMDB31188'
p2556
sS'C01500'
p2557
S'HMDB35155'
p2558
sS'C01502'
p2559
S'HMDB01398'
p2560
sS'C02632'
p2561
S'HMDB01873'
p2562
sS'C02630'
p2563
S'HMDB59655'
p2564
sS'C13636'
p2565
S'HMDB60390'
p2566
sS'C02325'
p2567
S'HMDB13070'
p2568
sS'C03465'
p2569
S'HMDB00491'
p2570
sS'C06539'
p2571
S'HMDB14351'
p2572
sS'C02272'
p2573
S'HMDB31666'
p2574
sS'C04223'
p2575
S'HMDB36819'
p2576
sS'C04221'
p2577
S'HMDB01164'
p2578
sS'C06535'
p2579
S'HMDB15116'
p2580
sS'C05950'
p2581
S'HMDB06059'
p2582
sS'C04225'
p2583
S'HMDB06357'
p2584
sS'C06536'
p2585
S'HMDB30310'
p2586
sS'C12389'
p2587
S'HMDB15682'
p2588
sS'C02271'
p2589
S'HMDB31548'
p2590
sS'C07047'
p2591
S'HMDB15312'
p2592
sS'C18985'
p2593
S'HMDB31783'
p2594
sS'C07044'
p2595
S'HMDB15140'
p2596
sS'C02277'
p2597
S'HMDB11626'
p2598
sS'C07132'
p2599
S'HMDB14516'
p2600
sS'C07130'
p2601
S'HMDB01889'
p2602
sS'C07045'
p2603
S'HMDB14697'
p2604
sS'C03345'
p2605
S'HMDB02054'
p2606
sS'C12147'
p2607
S'HMDB11185'
p2608
sS'C07139'
p2609
S'HMDB15545'
p2610
sS'C12141'
p2611
S'HMDB13689'
p2612
sS'C12140'
p2613
S'HMDB30777'
p2614
sS'C01102'
p2615
S'HMDB03484'
p2616
sS'C17639'
p2617
S'HMDB33973'
p2618
sS'C03124'
p2619
S'HMDB32332'
p2620
sS'C05958'
p2621
S'HMDB04238'
p2622
sS'C07666'
p2623
S'HMDB14395'
p2624
sS'C09675'
p2625
S'HMDB36648'
p2626
sS'C08446'
p2627
S'HMDB33765'
p2628
sS'C08117'
p2629
S'HMDB15485'
p2630
sS'C08111'
p2631
S'HMDB15483'
p2632
sS'C08110'
p2633
S'HMDB14675'
p2634
sS'C14833'
p2635
S'HMDB04708'
p2636
sS'C00806'
p2637
S'HMDB30396'
p2638
sS'C14831'
p2639
S'HMDB04706'
p2640
sS'C00804'
p2641
S'HMDB06804'
p2642
sS'C00803'
p2643
S'HMDB00892'
p2644
sS'C07662'
p2645
S'HMDB15339'
p2646
sS'C14839'
p2647
S'HMDB60448'
p2648
sS'C18676'
p2649
S'HMDB31334'
p2650
sS'C19214'
p2651
S'HMDB37521'
p2652
sS'C00473'
p2653
S'HMDB00305'
p2654
sS'C01375'
p2655
S'HMDB15002'
p2656
sS'C08065'
p2657
S'HMDB14777'
p2658
sS'C08067'
p2659
S'HMDB15223'
p2660
sS'C07049'
p2661
S'HMDB01848'
p2662
sS'C08068'
p2663
S'HMDB15259'
p2664
sS'C03343'
p2665
S'HMDB13248'
p2666
sS'C03342'
p2667
g1448
sS'C07042'
p2668
S'HMDB14472'
p2669
sS'C07043'
p2670
S'HMDB15549'
p2671
sS'C07040'
p2672
S'HMDB15400'
p2673
sS'C07041'
p2674
S'HMDB01928'
p2675
sS'C09880'
p2676
S'HMDB06525'
p2677
sS'C07667'
p2678
S'HMDB40723'
p2679
sS'C09882'
p2680
S'HMDB36560'
p2681
sS'C07665'
p2682
S'HMDB14747'
p2683
sS'C09228'
p2684
S'HMDB38849'
p2685
sS'C09885'
p2686
S'HMDB35738'
p2687
sS'C07660'
p2688
S'HMDB01929'
p2689
sS'C07661'
p2690
S'HMDB15178'
p2691
sS'C09226'
p2692
S'HMDB41933'
p2693
sS'C09220'
p2694
S'HMDB30318'
p2695
sS'C07668'
p2696
S'HMDB15099'
p2697
sS'C07669'
p2698
S'HMDB14367'
p2699
sS'C05578'
p2700
S'HMDB04058'
p2701
sS'C04002'
p2702
S'HMDB60320'
p2703
sS'C10702'
p2704
S'HMDB30770'
p2705
sS'C04006'
p2706
S'HMDB00213'
p2707
sS'C18075'
p2708
S'HMDB60339'
p2709
sS'C03906'
p2710
S'HMDB12195'
p2711
sS'C13736'
p2712
S'HMDB15177'
p2713
sS'C05576'
p2714
S'HMDB00318'
p2715
sS'C05577'
p2716
S'HMDB06242'
p2717
sS'C03081'
p2718
S'HMDB59622'
p2719
sS'C00242'
p2720
S'HMDB00132'
p2721
sS'C00245'
p2722
S'HMDB00251'
p2723
sS'C05640'
p2724
S'HMDB04078'
p2725
sS'C12564'
p2726
S'HMDB05042'
p2727
sS'C00249'
p2728
S'HMDB00220'
p2729
sS'C00248'
p2730
S'HMDB00962'
p2731
sS'C07598'
p2732
S'HMDB14706'
p2733
sS'C14693'
p2734
S'HMDB33826'
p2735
sS'C11499'
p2736
S'HMDB60176'
p2737
sS'C00486'
p2738
S'HMDB00054'
p2739
sS'C08285'
p2740
S'HMDB37798'
p2741
sS'C07263'
p2742
S'HMDB14383'
p2743
sS'C11142'
p2744
S'HMDB04983'
p2745
sS'C11143'
p2746
S'HMDB02151'
p2747
sS'C08281'
p2748
S'HMDB00944'
p2749
sS'C07267'
p2750
S'HMDB14537'
p2751
sS'C11494'
p2752
S'HMDB34913'
p2753
sS'C05682'
p2754
S'HMDB04110'
p2755
sS'C00068'
p2756
S'HMDB01372'
p2757
sS'C06958'
p2758
S'HMDB14487'
p2759
sS'C05686'
p2760
S'HMDB04112'
p2761
sS'C16845'
p2762
S'HMDB02179'
p2763
sS'C05684'
p2764
S'HMDB11119'
p2765
sS'C00061'
p2766
S'HMDB01520'
p2767
sS'C06952'
p2768
S'HMDB14644'
p2769
sS'C06951'
p2770
S'HMDB14942'
p2771
sS'C06950'
p2772
S'HMDB14628'
p2773
sS'C00065'
p2774
S'HMDB00187'
p2775
sS'C06956'
p2776
S'HMDB01917'
p2777
sS'C06955'
p2778
S'HMDB15468'
p2779
sS'C06954'
p2780
S'HMDB15072'
p2781
sS'C08846'
p2782
S'HMDB33656'
p2783
sS'C06990'
p2784
S'HMDB41855'
p2785
sS'C11720'
p2786
S'HMDB41886'
p2787
sS'C11723'
p2788
S'HMDB15444'
p2789
sS'C06789'
p2790
S'HMDB41980'
p2791
sS'C06805'
p2792
S'HMDB14957'
p2793
sS'C03901'
p2794
S'HMDB59611'
p2795
sS'C00669'
p2796
S'HMDB01049'
p2797
sS'C07463'
p2798
S'HMDB14486'
p2799
sS'C00666'
p2800
S'HMDB01370'
p2801
sS'C00665'
p2802
S'HMDB01047'
p2803
sS'C00664'
p2804
S'HMDB01534'
p2805
sS'C07469'
p2806
S'HMDB15163'
p2807
sS'C00661'
p2808
S'HMDB01112'
p2809
sS'C16289'
p2810
S'HMDB30096'
p2811
sS'C00114'
p2812
S'HMDB00097'
p2813
sS'C00117'
p2814
S'HMDB01548'
p2815
sS'C00116'
p2816
S'HMDB00131'
p2817
sS'C00111'
p2818
S'HMDB01473'
p2819
sS'C07481'
p2820
S'HMDB01847'
p2821
sS'C00112'
p2822
S'HMDB01546'
p2823
sS'C00119'
p2824
S'HMDB00280'
p2825
sS'C03427'
p2826
S'HMDB03023'
p2827
sS'C16942'
p2828
S'HMDB33960'
p2829
sS'C05198'
p2830
S'HMDB01983'
p2831
sS'C16476'
p2832
S'HMDB60386'
p2833
sS'C11924'
p2834
S'HMDB04586'
p2835
sS'C10037'
p2836
S'HMDB34004'
p2837
sS'C06881'
p2838
S'HMDB14809'
p2839
sS'C06880'
p2840
S'HMDB15422'
p2841
sS'C00246'
p2842
S'HMDB00039'
p2843
sS'C06885'
p2844
S'HMDB14636'
p2845
sS'C06884'
p2846
S'HMDB15059'
p2847
sS'C06887'
p2848
S'HMDB15426'
p2849
sS'C06886'
p2850
S'HMDB15425'
p2851
sS'C10529'
p2852
S'HMDB34027'
p2853
sS'C11035'
p2854
S'HMDB34854'
p2855
sS'C10521'
p2856
S'HMDB34127'
p2857
sS'C10520'
p2858
S'HMDB30617'
p2859
sS'C10523'
p2860
S'HMDB34050'
p2861
sS'C10522'
p2862
S'HMDB36616'
p2863
sS'C10527'
p2864
S'HMDB30718'
p2865
sS'C07330'
p2866
g990
sS'C00483'
p2867
S'HMDB00306'
p2868
sS'C01044'
p2869
S'HMDB60495'
p2870
sS'C01045'
p2871
S'HMDB03470'
p2872
sS'C01040'
p2873
S'HMDB03466'
p2874
sS'C01042'
p2875
S'HMDB00812'
p2876
sS'C01043'
p2877
S'HMDB12265'
p2878
sS'C14288'
p2879
S'HMDB41808'
p2880
sS'C00568'
p2881
S'HMDB01392'
p2882
sS'C13425'
p2883
S'HMDB06816'
p2884
sS'C14870'
p2885
S'HMDB60344'
p2886
sS'C00482'
p2887
S'HMDB32616'
p2888
sS'C09718'
p2889
S'HMDB36364'
p2890
sS'C14285'
p2891
S'HMDB15497'
p2892
sS'C15643'
p2893
S'HMDB15364'
p2894
sS'C10454'
p2895
S'HMDB31864'
p2896
sS'C10457'
p2897
S'HMDB30111'
p2898
sS'C07346'
p2899
S'HMDB14759'
p2900
sS'C10451'
p2901
S'HMDB33778'
p2902
sS'C10453'
p2903
S'HMDB05809'
p2904
sS'C10452'
p2905
S'HMDB34121'
p2906
sS'C09839'
p2907
S'HMDB35087'
p2908
sS'C14732'
p2909
S'HMDB10217'
p2910
sS'C10459'
p2911
S'HMDB39275'
p2912
sS'C16462'
p2913
S'HMDB35837'
p2914
sS'C14512'
p2915
S'HMDB32929'
p2916
sS'C16461'
p2917
S'HMDB36103'
p2918
sS'C07615'
p2919
S'HMDB14533'
p2920
sS'C14516'
p2921
S'HMDB32923'
p2922
sS'C14518'
p2923
S'HMDB59901'
p2924
sS'C07914'
p2925
S'HMDB15341'
p2926
sS'C10858'
p2927
S'HMDB06548'
p2928
sS'C16656'
p2929
S'HMDB60682'
p2930
sS'C07910'
p2931
S'HMDB15175'
p2932
sS'C07913'
p2933
S'HMDB15640'
p2934
sS'C07919'
p2935
S'HMDB15429'
p2936
sS'C12201'
p2937
S'HMDB39896'
p2938
sS'C06371'
p2939
S'HMDB06566'
p2940
sS'C07266'
p2941
S'HMDB15247'
p2942
sS'C05689'
p2943
S'HMDB04113'
p2944
sS'C14605'
p2945
S'HMDB14996'
p2946
sS'C14606'
p2947
S'HMDB02984'
p2948
sS'C07264'
p2949
S'HMDB14760'
p2950
sS'C01443'
p2951
S'HMDB15224'
p2952
sS'C13550'
p2953
S'HMDB01419'
p2954
sS'C13881'
p2955
S'HMDB04142'
p2956
sS'C00341'
p2957
S'HMDB01285'
p2958
sS'C00345'
p2959
S'HMDB01316'
p2960
sS'C07861'
p2961
S'HMDB14648'
p2962
sS'C01991'
p2963
S'HMDB00710'
p2964
sS'C01996'
p2965
S'HMDB00895'
p2966
sS'C02538'
p2967
S'HMDB01425'
p2968
sS'C01222'
p2969
S'HMDB01346'
p2970
sS'C02535'
p2971
S'HMDB33212'
p2972
sS'C02242'
p2973
S'HMDB00897'
p2974
sS'C02537'
p2975
S'HMDB00429'
p2976
sS'C05960'
p2977
S'HMDB04240'
p2978
sS'C01228'
p2979
S'HMDB59638'
p2980
sS'C17644'
p2981
S'HMDB00917'
p2982
sS'C05965'
p2983
S'HMDB04243'
p2984
sS'C17646'
p2985
S'HMDB00411'
p2986
sS'C06953'
p2987
S'HMDB15037'
p2988
sS'C05688'
p2989
S'HMDB03288'
p2990
sS'C05985'
p2991
S'HMDB06803'
p2992
sS'C00062'
p2993
S'HMDB00517'
p2994
sS'C05983'
p2995
S'HMDB06806'
p2996
sS'C05989'
p2997
S'HMDB02170'
p2998
sS'C05791'
p2999
S'HMDB04158'
p3000
sS'C00064'
p3001
S'HMDB00641'
p3002
sS'C00067'
p3003
S'HMDB01426'
p3004
sS'C02710'
p3005
S'HMDB11756'
p3006
sS'C02336'
p3007
S'HMDB00660'
p3008
sS'C16608'
p3009
S'HMDB14021'
p3010
sS'C05961'
p3011
S'HMDB02886'
p3012
sS'C06329'
p3013
S'HMDB60347'
p3014
sS'C03758'
p3015
S'HMDB00073'
p3016
sS'C02330'
p3017
S'HMDB12304'
p3018
sS'C16602'
p3019
S'HMDB60653'
p3020
sS'C03205'
p3021
S'HMDB00016'
p3022
sS'C16601'
p3023
S'HMDB60651'
p3024
sS'C16606'
p3025
S'HMDB60566'
p3026
sS'C16607'
p3027
S'HMDB60654'
p3028
sS'C16604'
p3029
S'HMDB60652'
p3030
sS'C16605'
p3031
S'HMDB60675'
p3032
sS'C01531'
p3033
S'HMDB14743'
p3034
sS'C01537'
p3035
S'HMDB31219'
p3036
sS'C02625'
p3037
S'HMDB04811'
p3038
sS'C07339'
p3039
S'HMDB15235'
p3040
sS'C19440'
p3041
S'HMDB06112'
p3042
sS'C19443'
p3043
S'HMDB33977'
p3044
sS'C19119'
p3045
S'HMDB32560'
p3046
sS'C08611'
p3047
S'HMDB35836'
p3048
sS'C07125'
p3049
S'HMDB14376'
p3050
sS'C07124'
p3051
S'HMDB14844'
p3052
sS'C07127'
p3053
S'HMDB15293'
p3054
sS'C06180'
p3055
S'HMDB04350'
p3056
sS'C07128'
p3057
S'HMDB14597'
p3058
sS'C06182'
p3059
S'HMDB30325'
p3060
sS'C14863'
p3061
S'HMDB60343'
p3062
sS'C06184'
p3063
S'HMDB30326'
p3064
sS'C06438'
p3065
S'HMDB05102'
p3066
sS'C06439'
p3067
S'HMDB02664'
p3068
sS'C00489'
p3069
S'HMDB00661'
p3070
sS'C18867'
p3071
S'HMDB34850'
p3072
sS'C18860'
p3073
S'HMDB31792'
p3074
sS'C03117'
p3075
S'HMDB01499'
p3076
sS'C04076'
p3077
S'HMDB59595'
p3078
sS'C06612'
p3079
S'HMDB60456'
p3080
sS'C06613'
p3081
S'HMDB60516'
p3082
sS'C06614'
p3083
S'HMDB60515'
p3084
sS'C06615'
p3085
S'HMDB60457'
p3086
sS'C10223'
p3087
S'HMDB37650'
p3088
sS'C04368'
p3089
S'HMDB03831'
p3090
sS'C18649'
p3091
S'HMDB31782'
p3092
sS'C08126'
p3093
S'HMDB14561'
p3094
sS'C08127'
p3095
S'HMDB15046'
p3096
sS'C00872'
p3097
S'HMDB01147'
p3098
sS'C12283'
p3099
S'HMDB29723'
p3100
sS'C00870'
p3101
S'HMDB01232'
p3102
sS'C12286'
p3103
S'HMDB59883'
p3104
sS'C12287'
p3105
S'HMDB36565'
p3106
sS'C00488'
p3107
S'HMDB01536'
p3108
sS'C00878'
p3109
S'HMDB60255'
p3110
sS'C00879'
p3111
g90
sS'C11555'
p3112
S'HMDB04527'
p3113
sS'C11088'
p3114
S'HMDB60334'
p3115
sS'C03375'
p3116
S'HMDB11634'
p3117
sS'C07699'
p3118
S'HMDB14545'
p3119
sS'C03373'
p3120
S'HMDB01235'
p3121
sS'C07693'
p3122
S'HMDB14938'
p3123
sS'C16074'
p3124
S'HMDB34171'
p3125
sS'C16071'
p3126
S'HMDB59614'
p3127
sS'C03576'
p3128
S'HMDB03745'
p3129
sS'C06505'
p3130
S'HMDB06904'
p3131
sS'C06054'
p3132
S'HMDB06801'
p3133
sS'C06055'
p3134
S'HMDB06802'
p3135
sS'C06052'
p3136
S'HMDB04291'
p3137
sS'C08059'
p3138
S'HMDB15332'
p3139
sS'C06050'
p3140
S'HMDB06954'
p3141
sS'C06051'
p3142
S'HMDB04290'
p3143
sS'C07055'
p3144
S'HMDB15562'
p3145
sS'C07054'
p3146
S'HMDB15086'
p3147
sS'C07056'
p3148
S'HMDB15197'
p3149
sS'C08050'
p3150
S'HMDB14715'
p3151
sS'C08720'
p3152
S'HMDB29711'
p3153
sS'C07675'
p3154
S'HMDB15264'
p3155
sS'C00588'
p3156
S'HMDB01565'
p3157
sS'C09238'
p3158
S'HMDB42010'
p3159
sS'C07670'
p3160
S'HMDB15048'
p3161
sS'C07673'
p3162
S'HMDB15050'
p3163
sS'C09898'
p3164
S'HMDB36995'
p3165
sS'C00583'
p3166
S'HMDB01881'
p3167
sS'C00580'
p3168
S'HMDB02303'
p3169
sS'C00581'
p3170
S'HMDB00128'
p3171
sS'C00587'
p3172
S'HMDB02466'
p3173
sS'C00584'
p3174
S'HMDB01220'
p3175
sS'C11729'
p3176
S'HMDB14877'
p3177
sS'C09209'
p3178
S'HMDB35196'
p3179
sS'C10738'
p3180
S'HMDB33852'
p3181
sS'C10739'
p3182
S'HMDB33853'
p3183
sS'C18080'
p3184
S'HMDB34130'
p3185
sS'C03975'
p3186
S'HMDB00704'
p3187
sS'C07587'
p3188
S'HMDB15470'
p3189
sS'C07586'
p3190
S'HMDB15173'
p3191
sS'C18242'
p3192
S'HMDB60360'
p3193
sS'C18243'
p3194
S'HMDB60361'
p3195
sS'C00279'
p3196
S'HMDB01321'
p3197
sS'C00909'
p3198
S'HMDB01337'
p3199
sS'C00906'
p3200
S'HMDB00079'
p3201
sS'C07599'
p3202
S'HMDB00786'
p3203
sS'C00902'
p3204
S'HMDB01864'
p3205
sS'C00903'
p3206
S'HMDB03441'
p3207
sS'C00272'
p3208
S'HMDB59658'
p3209
sS'C11158'
p3210
S'HMDB15164'
p3211
sS'C11489'
p3212
S'HMDB01122'
p3213
sS'C00479'
p3214
S'HMDB03366'
p3215
sS'C11481'
p3216
S'HMDB01033'
p3217
sS'C07270'
p3218
S'HMDB14723'
p3219
sS'C00474'
p3220
S'HMDB00568'
p3221
sS'C00475'
p3222
S'HMDB00089'
p3223
sS'C00472'
p3224
S'HMDB03364'
p3225
sS'C07274'
p3226
S'HMDB14680'
p3227
sS'C07461'
p3228
S'HMDB15018'
p3229
sS'C00294'
p3230
S'HMDB00195'
p3231
sS'C00295'
p3232
S'HMDB00226'
p3233
sS'C00292'
p3234
S'HMDB03012'
p3235
sS'C05696'
p3236
S'HMDB11104'
p3237
sS'C11806'
p3238
S'HMDB05017'
p3239
sS'C11803'
p3240
S'HMDB41970'
p3241
sS'C00299'
p3242
S'HMDB00296'
p3243
sS'C03805'
p3244
S'HMDB11133'
p3245
sS'C07014'
p3246
S'HMDB15227'
p3247
sS'C11733'
p3248
S'HMDB15375'
p3249
sS'C11736'
p3250
S'HMDB14467'
p3251
sS'C11735'
p3252
S'HMDB41945'
p3253
sS'C07053'
p3254
S'HMDB14366'
p3255
sS'C11738'
p3256
S'HMDB61008'
p3257
sS'C02800'
p3258
S'HMDB13233'
p3259
sS'C17661'
p3260
S'HMDB02536'
p3261
sS'C00618'
p3262
S'HMDB06334'
p3263
sS'C17660'
p3264
S'HMDB00361'
p3265
sS'C00988'
p3266
S'HMDB00816'
p3267
sS'C07474'
p3268
S'HMDB15217'
p3269
sS'C00612'
p3270
S'HMDB01276'
p3271
sS'C01207'
p3272
S'HMDB03503'
p3273
sS'C00611'
p3274
S'HMDB01542'
p3275
sS'C00120'
p3276
S'HMDB00030'
p3277
sS'C10191'
p3278
S'HMDB37334'
p3279
sS'C00122'
p3280
S'HMDB00134'
p3281
sS'C00123'
p3282
S'HMDB00687'
p3283
sS'C05441'
p3284
S'HMDB00900'
p3285
sS'C15484'
p3286
S'HMDB01455'
p3287
sS'C00128'
p3288
S'HMDB01176'
p3289
sS'C00129'
p3290
S'HMDB01347'
p3291
sS'C11939'
p3292
S'HMDB35250'
p3293
sS'C11938'
p3294
S'HMDB35100'
p3295
sS'C05189'
p3296
S'HMDB03920'
p3297
sS'C10043'
p3298
g986
sS'C08948'
p3299
S'HMDB30634'
p3300
sS'C10510'
p3301
S'HMDB41658'
p3302
sS'C00113'
p3303
S'HMDB13636'
p3304
sS'C10044'
p3305
S'HMDB29521'
p3306
sS'C10048'
p3307
S'HMDB33762'
p3308
sS'C15482'
p3309
S'HMDB14764'
p3310
sS'C14034'
p3311
S'HMDB14464'
p3312
sS'C00054'
p3313
S'HMDB00061'
p3314
sS'C00055'
p3315
S'HMDB00095'
p3316
sS'C00051'
p3317
g1514
sS'C11028'
p3318
S'HMDB41985'
p3319
sS'C02693'
p3320
S'HMDB29739'
p3321
sS'C00058'
p3322
S'HMDB00142'
p3323
sS'C10998'
p3324
S'HMDB13195'
p3325
sS'C10990'
p3326
S'HMDB34860'
p3327
sS'C14296'
p3328
S'HMDB13868'
p3329
sS'C14291'
p3330
S'HMDB31770'
p3331
sS'C08312'
p3332
S'HMDB42000'
p3333
sS'C02108'
p3334
S'HMDB37821'
p3335
sS'C01051'
p3336
S'HMDB01086'
p3337
sS'C04577'
p3338
S'HMDB10210'
p3339
sS'C04575'
p3340
S'HMDB05971'
p3341
sS'C01054'
p3342
S'HMDB59621'
p3343
sS'C06980'
p3344
S'HMDB14333'
p3345
sS'C06981'
p3346
S'HMDB15346'
p3347
sS'C06984'
p3348
S'HMDB14474'
p3349
sS'C04778'
p3350
S'HMDB03882'
p3351
sS'C06988'
p3352
S'HMDB59785'
p3353
sS'C04771'
p3354
S'HMDB15188'
p3355
sS'C04805'
p3356
S'HMDB11134'
p3357
sS'C07155'
p3358
S'HMDB14890'
p3359
sS'C10460'
p3360
S'HMDB35403'
p3361
sS'C10464'
p3362
S'HMDB34145'
p3363
sS'C10467'
p3364
S'HMDB33820'
p3365
sS'C10468'
p3366
S'HMDB30705'
p3367
sS'C10469'
p3368
S'HMDB05802'
p3369
sS'C10865'
p3370
S'HMDB34580'
p3371
sS'C02107'
p3372
S'HMDB29878'
p3373
sS'C16477'
p3374
S'HMDB60395'
p3375
sS'C14508'
p3376
S'HMDB41924'
p3377
sS'C02452'
p3378
S'HMDB36088'
p3379
sS'C10868'
p3380
S'HMDB29875'
p3381
sS'C07807'
p3382
S'HMDB15407'
p3383
sS'C07905'
p3384
S'HMDB15229'
p3385
sS'C05356'
p3386
S'HMDB01193'
p3387
sS'C16595'
p3388
S'HMDB60389'
p3389
sS'C05350'
p3390
S'HMDB06915'
p3391
sS'C01455'
p3392
S'HMDB34168'
p3393
sS'C01454'
p3394
S'HMDB29635'
p3395
sS'C01453'
p3396
S'HMDB14526'
p3397
sS'C01451'
p3398
S'HMDB03546'
p3399
sS'C01328'
p3400
S'HMDB01039'
p3401
sS'C06922'
p3402
S'HMDB01922'
p3403
sS'C01189'
p3404
S'HMDB01170'
p3405
sS'C12798'
p3406
S'HMDB42056'
p3407
sS'C01181'
p3408
S'HMDB01161'
p3409
sS'C01180'
p3410
S'HMDB01553'
p3411
sS'C01183'
p3412
S'HMDB01466'
p3413
sS'C01185'
p3414
S'HMDB59646'
p3415
sS'C14348'
p3416
S'HMDB32737'
p3417
sS'C05117'
p3418
S'HMDB12248'
p3419
sS'C06889'
p3420
S'HMDB14582'
p3421
sS'C07632'
p3422
S'HMDB00495'
p3423
sS'C08506'
p3424
S'HMDB33351'
p3425
sS'C17671'
p3426
S'HMDB33911'
p3427
sS'C17672'
p3428
S'HMDB38473'
p3429
sS'C01737'
p3430
S'HMDB15129'
p3431
sS'C05125'
p3432
S'HMDB03904'
p3433
sS'C17076'
p3434
S'HMDB00910'
p3435
sS'C01231'
p3436
S'HMDB03514'
p3437
sS'C13747'
p3438
S'HMDB01860'
p3439
sS'C17073'
p3440
S'HMDB35833'
p3441
sS'C07879'
p3442
S'HMDB14668'
p3443
sS'C01234'
p3444
S'HMDB36458'
p3445
sS'C07877'
p3446
S'HMDB15292'
p3447
sS'C01239'
p3448
S'HMDB01104'
p3449
sS'C07874'
p3450
S'HMDB32386'
p3451
sS'C02504'
p3452
S'HMDB00402'
p3453
sS'C02505'
p3454
S'HMDB10715'
p3455
sS'C07870'
p3456
S'HMDB15408'
p3457
sS'C05766'
p3458
S'HMDB02211'
p3459
sS'C02291'
p3460
S'HMDB00099'
p3461
sS'C06882'
p3462
S'HMDB15423'
p3463
sS'C02294'
p3464
S'HMDB01522'
p3465
sS'C00944'
p3466
S'HMDB12710'
p3467
sS'C04367'
p3468
S'HMDB59636'
p3469
sS'C03582'
p3470
S'HMDB03747'
p3471
sS'C10038'
p3472
S'HMDB29676'
p3473
sS'C17717'
p3474
S'HMDB32948'
p3475
sS'C15923'
p3476
S'HMDB12326'
p3477
sS'C17715'
p3478
S'HMDB00947'
p3479
sS'C17714'
p3480
S'HMDB00666'
p3481
sS'C16619'
p3482
S'HMDB60789'
p3483
sS'C02343'
p3484
S'HMDB01942'
p3485
sS'C02341'
p3486
S'HMDB00958'
p3487
sS'C02344'
p3488
S'HMDB34932'
p3489
sS'C16610'
p3490
S'HMDB60463'
p3491
sS'C03747'
p3492
S'HMDB00920'
p3493
sS'C16612'
p3494
S'HMDB60462'
p3495
sS'C06337'
p3496
S'HMDB02428'
p3497
sS'C16614'
p3498
S'HMDB60412'
p3499
sS'C16617'
p3500
S'HMDB60790'
p3501
sS'C03742'
p3502
S'HMDB60318'
p3503
sS'C02180'
p3504
S'HMDB60015'
p3505
sS'C02181'
p3506
S'HMDB31609'
p3507
sS'C01528'
p3508
S'HMDB11110'
p3509
sS'C01526'
p3510
S'HMDB42006'
p3511
sS'C14819'
p3512
S'HMDB12943'
p3513
sS'C00493'
p3514
S'HMDB03070'
p3515
sS'C06196'
p3516
S'HMDB06555'
p3517
sS'C06195'
p3518
S'HMDB04363'
p3519
sS'C06194'
p3520
S'HMDB11629'
p3521
sS'C06192'
p3522
S'HMDB06369'
p3523
sS'C19477'
p3524
S'HMDB41939'
p3525
sS'C09848'
p3526
S'HMDB35820'
p3527
sS'C06199'
p3528
S'HMDB04366'
p3529
sS'C06198'
p3530
S'HMDB06796'
p3531
sS'C06427'
p3532
S'HMDB01388'
p3533
sS'C06426'
p3534
S'HMDB03073'
p3535
sS'C06425'
p3536
S'HMDB02212'
p3537
sS'C08602'
p3538
S'HMDB41590'
p3539
sS'C06423'
p3540
S'HMDB00482'
p3541
sS'C07119'
p3542
S'HMDB01939'
p3543
sS'C08606'
p3544
S'HMDB03020'
p3545
sS'C08608'
p3546
S'HMDB35832'
p3547
sS'C07116'
p3548
S'HMDB14875'
p3549
sS'C07117'
p3550
S'HMDB15074'
p3551
sS'C07111'
p3552
S'HMDB59905'
p3553
sS'C07112'
p3554
S'HMDB32619'
p3555
sS'C07113'
p3556
S'HMDB33910'
p3557
sS'C09844'
p3558
S'HMDB04472'
p3559
sS'C02763'
p3560
S'HMDB12225'
p3561
sS'C02765'
p3562
S'HMDB01943'
p3563
sS'C14810'
p3564
S'HMDB04690'
p3565
sS'C18872'
p3566
S'HMDB42052'
p3567
sS'C11111'
p3568
S'HMDB31779'
p3569
sS'C04371'
p3570
S'HMDB35716'
p3571
sS'C04373'
p3572
S'HMDB00490'
p3573
sS'C14812'
p3574
S'HMDB04692'
p3575
sS'C06609'
p3576
g304
sS'C06608'
p3577
S'HMDB12209'
p3578
sS'C06607'
p3579
S'HMDB01460'
p3580
sS'C06606'
p3581
S'HMDB13035'
p3582
sS'C18659'
p3583
S'HMDB31787'
p3584
sS'C06604'
p3585
S'HMDB01355'
p3586
sS'C06602'
p3587
S'HMDB41800'
p3588
sS'C14814'
p3589
S'HMDB04694'
p3590
sS'C14801'
p3591
S'HMDB60328'
p3592
sS'C12290'
p3593
S'HMDB30028'
p3594
sS'C12293'
p3595
S'HMDB34163'
p3596
sS'C12292'
p3597
S'HMDB40195'
p3598
sS'C12295'
p3599
S'HMDB33371'
p3600
sS'C11115'
p3601
S'HMDB33002'
p3602
sS'C12297'
p3603
S'HMDB31352'
p3604
sS'C02961'
p3605
S'HMDB15122'
p3606
sS'C12298'
p3607
S'HMDB34160'
p3608
sS'C00534'
p3609
S'HMDB01431'
p3610
sS'C03360'
p3611
S'HMDB60272'
p3612
sS'C03366'
p3613
S'HMDB59600'
p3614
sS'C03365'
p3615
S'HMDB31449'
p3616
sS'C12766'
p3617
S'HMDB15135'
p3618
sS'C17883'
p3619
S'HMDB13744'
p3620
sS'C03564'
p3621
S'HMDB06875'
p3622
sS'C03567'
p3623
S'HMDB33928'
p3624
sS'C03561'
p3625
S'HMDB01166'
p3626
sS'C08042'
p3627
S'HMDB14480'
p3628
sS'C07062'
p3629
S'HMDB14608'
p3630
sS'C07063'
p3631
S'HMDB14736'
p3632
sS'C08731'
p3633
S'HMDB29539'
p3634
sS'C07065'
p3635
S'HMDB14847'
p3636
sS'C07708'
p3637
S'HMDB14634'
p3638
sS'C05512'
p3639
S'HMDB00071'
p3640
sS'C07641'
p3641
S'HMDB15576'
p3642
sS'C02314'
p3643
S'HMDB01483'
p3644
sS'C07643'
p3645
S'HMDB13856'
p3646
sS'C07644'
p3647
S'HMDB60686'
p3648
sS'C07645'
p3649
S'HMDB60433'
p3650
sS'C07646'
p3651
S'HMDB60687'
p3652
sS'C07647'
p3653
S'HMDB60689'
p3654
sS'C07648'
p3655
S'HMDB14496'
p3656
sS'C00590'
p3657
S'HMDB12915'
p3658
sS'C05519'
p3659
S'HMDB04041'
p3660
sS'C00597'
p3661
S'HMDB00807'
p3662
sS'C06948'
p3663
S'HMDB14967'
p3664
sS'C03963'
p3665
S'HMDB30024'
p3666
sS'C03962'
p3667
S'HMDB32368'
p3668
sS'C10726'
p3669
S'HMDB29645'
p3670
sS'C01984'
p3671
S'HMDB00703'
p3672
sS'C19306'
p3673
S'HMDB29746'
p3674
sS'C07246'
p3675
S'HMDB05010'
p3676
sS'C07247'
p3677
S'HMDB15237'
p3678
sS'C07240'
p3679
S'HMDB14646'
p3680
sS'C07241'
p3681
S'HMDB15073'
p3682
sS'C18259'
p3683
S'HMDB60324'
p3684
sS'C11125'
p3685
S'HMDB34852'
p3686
sS'C00263'
p3687
S'HMDB00719'
p3688
sS'C00262'
p3689
S'HMDB00157'
p3690
sS'C00261'
p3691
S'HMDB06115'
p3692
sS'C00916'
p3693
S'HMDB60450'
p3694
sS'C00267'
p3695
S'HMDB03345'
p3696
sS'C00266'
p3697
S'HMDB03344'
p3698
sS'C00265'
p3699
S'HMDB13593'
p3700
sS'C19309'
p3701
S'HMDB31209'
p3702
sS'C06949'
p3703
S'HMDB15251'
p3704
sS'C00469'
p3705
S'HMDB00108'
p3706
sS'C00468'
p3707
S'HMDB00145'
p3708
sS'C00466'
p3709
S'HMDB03243'
p3710
sS'C00460'
p3711
S'HMDB01191'
p3712
sS'C00463'
p3713
S'HMDB00738'
p3714
sS'C09951'
p3715
S'HMDB32644'
p3716
sS'C12835'
p3717
S'HMDB60363'
p3718
sS'C00284'
p3719
S'HMDB15109'
p3720
sS'C00286'
p3721
S'HMDB01440'
p3722
sS'C00280'
p3723
S'HMDB00053'
p3724
sS'C00283'
p3725
S'HMDB03276'
p3726
sS'C07524'
p3727
S'HMDB14821'
p3728
sS'C00288'
p3729
S'HMDB00595'
p3730
sS'C14852'
p3731
S'HMDB60438'
p3732
sS'C17618'
p3733
S'HMDB60527'
p3734
sS'C05413'
p3735
S'HMDB02181'
p3736
sS'C05425'
p3737
S'HMDB03990'
p3738
sS'C05412'
p3739
g316
sS'C02218'
p3740
S'HMDB03609'
p3741
sS'C07523'
p3742
S'HMDB14956'
p3743
sS'C06605'
p3744
S'HMDB01504'
p3745
sS'C11583'
p3746
S'HMDB60387'
p3747
sS'C07489'
p3748
S'HMDB15505'
p3749
sS'C07486'
p3750
S'HMDB60538'
p3751
sS'C11490'
p3752
S'HMDB41942'
p3753
sS'C07484'
p3754
S'HMDB15097'
p3755
sS'C07482'
p3756
S'HMDB14614'
p3757
sS'C07480'
p3758
S'HMDB02825'
p3759
sS'C11231'
p3760
S'HMDB15378'
p3761
sS'C11907'
p3762
S'HMDB60081'
p3763
sS'C13440'
p3764
S'HMDB14827'
p3765
sS'C07446'
p3766
S'HMDB60665'
p3767
sS'C00135'
p3768
S'HMDB00177'
p3769
sS'C00134'
p3770
g1660
sS'C00133'
p3771
S'HMDB01310'
p3772
sS'C00132'
p3773
S'HMDB01875'
p3774
sS'C00131'
p3775
S'HMDB01532'
p3776
sS'C00130'
p3777
S'HMDB00175'
p3778
sS'C01198'
p3779
S'HMDB33752'
p3780
sS'C04604'
p3781
S'HMDB06955'
p3782
sS'C18754'
p3783
S'HMDB31669'
p3784
sS'C02198'
p3785
S'HMDB01452'
p3786
sS'C10504'
p3787
S'HMDB41758'
p3788
sS'C02214'
p3789
S'HMDB00620'
p3790
sS'C00043'
p3791
S'HMDB00290'
p3792
sS'C00042'
p3793
S'HMDB00254'
p3794
sS'C00041'
p3795
S'HMDB00161'
p3796
sS'C00794'
p3797
S'HMDB00247'
p3798
sS'C00047'
p3799
S'HMDB00182'
p3800
sS'C10294'
p3801
S'HMDB30829'
p3802
sS'C01380'
p3803
S'HMDB32262'
p3804
sS'C00049'
p3805
S'HMDB00191'
p3806
sS'C09955'
p3807
S'HMDB29399'
p3808
sS'C00739'
p3809
S'HMDB03405'
p3810
sS'C00792'
p3811
S'HMDB03416'
p3812
sS'C10761'
p3813
S'HMDB29686'
p3814
sS'C05270'
p3815
S'HMDB02845'
p3816
sS'C16396'
p3817
S'HMDB60362'
p3818
sS'C05647'
p3819
S'HMDB12948'
p3820
sS'C14750'
p3821
S'HMDB41824'
p3822
sS'C05645'
p3823
S'HMDB04083'
p3824
sS'C05642'
p3825
S'HMDB04259'
p3826
sS'C05643'
p3827
S'HMDB04081'
p3828
sS'C06999'
p3829
S'HMDB05030'
p3830
sS'C06997'
p3831
S'HMDB14713'
p3832
sS'C04741'
p3833
S'HMDB01442'
p3834
sS'C04742'
p3835
S'HMDB03876'
p3836
sS'C04744'
p3837
S'HMDB11657'
p3838
sS'C06991'
p3839
S'HMDB14887'
p3840
sS'C05649'
p3841
S'HMDB01441'
p3842
sS'C10642'
p3843
S'HMDB30351'
p3844
sS'C10476'
p3845
S'HMDB30762'
p3846
sS'C10475'
p3847
S'HMDB32611'
p3848
sS'C10643'
p3849
S'HMDB30177'
p3850
sS'C10470'
p3851
S'HMDB00955'
p3852
sS'C10871'
p3853
S'HMDB31452'
p3854
sS'C10874'
p3855
S'HMDB15310'
p3856
sS'C16444'
p3857
S'HMDB41835'
p3858
sS'C14570'
p3859
S'HMDB41606'
p3860
sS'C16443'
p3861
S'HMDB12201'
p3862
sS'C05349'
p3863
S'HMDB14677'
p3864
sS'C05341'
p3865
S'HMDB60442'
p3866
sS'C18364'
p3867
S'HMDB14959'
p3868
sS'C02427'
p3869
S'HMDB00679'
p3870
sS'C05345'
p3871
S'HMDB03971'
p3872
sS'C04900'
p3873
S'HMDB60296'
p3874
sS'C02241'
p3875
S'HMDB11614'
p3876
sS'C01424'
p3877
S'HMDB05807'
p3878
sS'C01752'
p3879
S'HMDB34344'
p3880
sS'C10985'
p3881
S'HMDB41866'
p3882
sS'C00385'
p3883
S'HMDB00292'
p3884
sS'C05593'
p3885
S'HMDB00440'
p3886
sS'C10988'
p3887
S'HMDB31791'
p3888
sS'C14403'
p3889
S'HMDB41965'
p3890
sS'C14401'
p3891
S'HMDB41799'
p3892
sS'C15808'
p3893
S'HMDB01181'
p3894
sS'C17663'
p3895
S'HMDB33386'
p3896
sS'C17662'
p3897
S'HMDB00686'
p3898
sS'C02515'
p3899
S'HMDB00021'
p3900
sS'C02514'
p3901
S'HMDB60371'
p3902
sS'C02512'
p3903
S'HMDB60245'
p3904
sS'C17669'
p3905
S'HMDB34218'
p3906
sS'C00383'
p3907
g1802
sS'C02519'
p3908
S'HMDB01101'
p3909
sS'C02518'
p3910
S'HMDB14378'
p3911
sS'C07809'
p3912
S'HMDB15279'
p3913
sS'C13757'
p3914
S'HMDB29368'
p3915
sS'C17060'
p3916
S'HMDB30174'
p3917
sS'C17062'
p3918
S'HMDB36061'
p3919
sS'C16592'
p3920
S'HMDB60671'
p3921
sS'C16591'
p3922
S'HMDB60367'
p3923
sS'C16596'
p3924
S'HMDB60400'
p3925
sS'C16554'
p3926
S'HMDB60690'
p3927
sS'C07805'
p3928
S'HMDB15118'
p3929
sS'C01083'
p3930
S'HMDB00975'
p3931
sS'C01087'
p3932
S'HMDB00606'
p3933
sS'C01089'
p3934
S'HMDB00011'
p3935
sS'C01735'
p3936
S'HMDB03563'
p3937
sS'C01732'
p3938
S'HMDB00749'
p3939
sS'C01733'
p3940
S'HMDB33951'
p3941
sS'C01956'
p3942
S'HMDB14483'
p3943
sS'C07206'
p3944
S'HMDB14689'
p3945
sS'C01951'
p3946
S'HMDB36999'
p3947
sS'C02287'
p3948
S'HMDB35227'
p3949
sS'C11169'
p3950
S'HMDB15619'
p3951
sS'C01959'
p3952
S'HMDB03584'
p3953
sS'C16624'
p3954
S'HMDB60664'
p3955
sS'C16625'
p3956
S'HMDB60663'
p3957
sS'C16626'
p3958
S'HMDB60561'
p3959
sS'C16620'
p3960
S'HMDB60413'
p3961
sS'C16621'
p3962
S'HMDB60659'
p3963
sS'C16622'
p3964
S'HMDB60496'
p3965
sS'C16623'
p3966
S'HMDB41912'
p3967
sS'C02351'
p3968
S'HMDB12133'
p3969
sS'C05361'
p3970
S'HMDB12973'
p3971
sS'C02355'
p3972
S'HMDB11640'
p3973
sS'C02356'
p3974
S'HMDB61050'
p3975
sS'C19317'
p3976
S'HMDB05843'
p3977
sS'C03771'
p3978
S'HMDB04225'
p3979
sS'C03772'
p3980
S'HMDB03769'
p3981
sS'C01888'
p3982
S'HMDB02134'
p3983
sS'C02191'
p3984
S'HMDB00241'
p3985
sS'C02197'
p3986
S'HMDB15031'
p3987
sS'C01880'
p3988
S'HMDB60476'
p3989
sS'C01553'
p3990
S'HMDB14421'
p3991
sS'C01551'
p3992
S'HMDB00462'
p3993
sS'C01557'
p3994
S'HMDB30637'
p3995
sS'C06971'
p3996
S'HMDB15273'
p3997
sS'C11387'
p3998
S'HMDB34985'
p3999
sS'C06973'
p4000
S'HMDB14399'
p4001
sS'C03483'
p4002
S'HMDB01364'
p4003
sS'C06972'
p4004
S'HMDB14613'
p4005
sS'C03485'
p4006
g66
sS'C11382'
p4007
S'HMDB34697'
p4008
sS'C03170'
p4009
S'HMDB60521'
p4010
sS'C07108'
p4011
S'HMDB14813'
p4012
sS'C06456'
p4013
S'HMDB14670'
p4014
sS'C06977'
p4015
S'HMDB14722'
p4016
sS'C06454'
p4017
S'HMDB14966'
p4018
sS'C08644'
p4019
S'HMDB33153'
p4020
sS'C06976'
p4021
S'HMDB15145'
p4022
sS'C07107'
p4023
S'HMDB15069'
p4024
sS'C07104'
p4025
S'HMDB14552'
p4026
sS'C00007'
p4027
S'HMDB01377'
p4028
sS'C02999'
p4029
S'HMDB60494'
p4030
sS'C00006'
p4031
S'HMDB00217'
p4032
sS'C02993'
p4033
S'HMDB05768'
p4034
sS'C02990'
p4035
S'HMDB00222'
p4036
sS'C08384'
p4037
S'HMDB34288'
p4038
sS'C08386'
p4039
S'HMDB33719'
p4040
sS'C08387'
p4041
S'HMDB34380'
p4042
sS'C08380'
p4043
S'HMDB03671'
p4044
sS'C08382'
p4045
S'HMDB31258'
p4046
sS'C08383'
p4047
S'HMDB41389'
p4048
sS'C06672'
p4049
S'HMDB00484'
p4050
sS'C08388'
p4051
S'HMDB59886'
p4052
sS'C08389'
p4053
S'HMDB40346'
p4054
sS'C02975'
p4055
S'HMDB31307'
p4056
sS'C00858'
p4057
S'HMDB05808'
p4058
sS'C11388'
p4059
S'HMDB36101'
p4060
sS'C18319'
p4061
S'HMDB02176'
p4062
sS'C00857'
p4063
S'HMDB01179'
p4064
sS'C02979'
p4065
S'HMDB02520'
p4066
sS'C00852'
p4067
S'HMDB03164'
p4068
sS'C06878'
p4069
S'HMDB15271'
p4070
sS'C07075'
p4071
S'HMDB14575'
p4072
sS'C07074'
p4073
S'HMDB14372'
p4074
sS'C07073'
p4075
S'HMDB14426'
p4076
sS'C07072'
p4077
S'HMDB14816'
p4078
sS'C07070'
p4079
S'HMDB14986'
p4080
sS'C12755'
p4081
S'HMDB15204'
p4082
sS'C19263'
p4083
S'HMDB02939'
p4084
sS'C17505'
p4085
S'HMDB36004'
p4086
sS'C07079'
p4087
S'HMDB15337'
p4088
sS'C07078'
p4089
S'HMDB15113'
p4090
sS'C06074'
p4091
S'HMDB38169'
p4092
sS'C06075'
p4093
S'HMDB36994'
p4094
sS'C06076'
p4095
S'HMDB59839'
p4096
sS'C03557'
p4097
S'HMDB11747'
p4098
sS'C06078'
p4099
S'HMDB32473'
p4100
sS'C02679'
p4101
S'HMDB00638'
p4102
sS'C10494'
p4103
S'HMDB31463'
p4104
sS'C05502'
p4105
S'HMDB04035'
p4106
sS'C05504'
p4107
S'HMDB06766'
p4108
sS'C07658'
p4109
S'HMDB14503'
p4110
sS'C07653'
p4111
S'HMDB14642'
p4112
sS'C07652'
p4113
S'HMDB14972'
p4114
sS'C07650'
p4115
S'HMDB14584'
p4116
sS'C11154'
p4117
S'HMDB15288'
p4118
sS'C08092'
p4119
S'HMDB14343'
p4120
sS'C08095'
p4121
S'HMDB14698'
p4122
sS'C10498'
p4123
S'HMDB36595'
p4124
sS'C04348'
p4125
S'HMDB01021'
p4126
sS'C06570'
p4127
S'HMDB14897'
p4128
sS'C07253'
p4129
S'HMDB14842'
p4130
sS'C07252'
p4131
S'HMDB15314'
p4132
sS'C07251'
p4133
S'HMDB14982'
p4134
sS'C07250'
p4135
S'HMDB14745'
p4136
sS'C11135'
p4137
S'HMDB02829'
p4138
sS'C07256'
p4139
S'HMDB15280'
p4140
sS'C07255'
p4141
S'HMDB14854'
p4142
sS'C11136'
p4143
S'HMDB04484'
p4144
sS'C04293'
p4145
S'HMDB30667'
p4146
sS'C07259'
p4147
S'HMDB05039'
p4148
sS'C07258'
p4149
S'HMDB15472'
p4150
sS'C19318'
p4151
S'HMDB38036'
p4152
sS'C04294'
p4153
S'HMDB32985'
p4154
sS'C04295'
p4155
S'HMDB03818'
p4156
sS'C00458'
p4157
S'HMDB00998'
p4158
sS'C00459'
p4159
S'HMDB01342'
p4160
sS'C08141'
p4161
S'HMDB15265'
p4162
sS'C08146'
p4163
S'HMDB14739'
p4164
sS'C08024'
p4165
S'HMDB15091'
p4166
sS'C00450'
p4167
S'HMDB59657'
p4168
sS'C00451'
p4169
S'HMDB01874'
p4170
sS'C08149'
p4171
S'HMDB14511'
p4172
sS'C00455'
p4173
S'HMDB00229'
p4174
sS'C16838'
p4175
S'HMDB30831'
p4176
sS'C03351'
p4177
S'HMDB59712'
p4178
sS'C09547'
p4179
S'HMDB36423'
p4180
sS'C09549'
p4181
S'HMDB30184'
p4182
sS'C07086'
p4183
S'HMDB00209'
p4184
sS'C16834'
p4185
S'HMDB13036'
p4186
sS'C16837'
p4187
S'HMDB60385'
p4188
sS'C16836'
p4189
S'HMDB60336'
p4190
sS'C03824'
p4191
S'HMDB01280'
p4192
sS'C05437'
p4193
S'HMDB06271'
p4194
sS'C05431'
p4195
S'HMDB03114'
p4196
sS'C05433'
p4197
S'HMDB03993'
p4198
sS'C05432'
p4199
S'HMDB03000'
p4200
sS'C18137'
p4201
S'HMDB37525'
p4202
sS'C15230'
p4203
S'HMDB31768'
p4204
sS'C00637'
p4205
S'HMDB01190'
p4206
sS'C00631'
p4207
S'HMDB03391'
p4208
sS'C00632'
p4209
S'HMDB01476'
p4210
sS'C00633'
p4211
S'HMDB11718'
p4212
sS'C18138'
p4213
S'HMDB37526'
p4214
sS'C01197'
p4215
g1096
sS'C16909'
p4216
S'HMDB36096'
p4217
sS'C07498'
p4218
S'HMDB60627'
p4219
sS'C11134'
p4220
S'HMDB03193'
p4221
sS'C07497'
p4222
S'HMDB14910'
p4223
sS'C11226'
p4224
S'HMDB40599'
p4225
sS'C11592'
p4226
S'HMDB32873'
p4227
sS'C12248'
p4228
S'HMDB59663'
p4229
sS'C07492'
p4230
S'HMDB14914'
p4231
sS'C00148'
p4232
S'HMDB00162'
p4233
sS'C00149'
p4234
S'HMDB00156'
p4235
sS'C00143'
p4236
S'HMDB01533'
p4237
sS'C00140'
p4238
S'HMDB00215'
p4239
sS'C00141'
p4240
S'HMDB00019'
p4241
sS'C00146'
p4242
S'HMDB00228'
p4243
sS'C00147'
p4244
S'HMDB00034'
p4245
sS'C00144'
p4246
S'HMDB01397'
p4247
sS'C06856'
p4248
S'HMDB15331'
p4249
sS'C06857'
p4250
S'HMDB01941'
p4251
sS'C06855'
p4252
S'HMDB15289'
p4253
sS'C06852'
p4254
S'HMDB14750'
p4255
sS'C06850'
p4256
S'HMDB15154'
p4257
sS'C11437'
p4258
S'HMDB01213'
p4259
sS'C15588'
p4260
g3804
sS'C15589'
p4261
g1092
sS'C15584'
p4262
g4243
sS'C10065'
p4263
S'HMDB29463'
p4264
sS'C10066'
p4265
S'HMDB31760'
p4266
sS'C15587'
p4267
S'HMDB01366'
p4268
sS'C10061'
p4269
S'HMDB30724'
p4270
sS'C15583'
p4271
S'HMDB40733'
p4272
sS'C11049'
p4273
S'HMDB34081'
p4274
sS'C11825'
p4275
S'HMDB01471'
p4276
sS'C00703'
p4277
S'HMDB03625'
p4278
sS'C00704'
p4279
S'HMDB02168'
p4280
sS'C18310'
p4281
S'HMDB60369'
p4282
sS'C11821'
p4283
S'HMDB30097'
p4284
sS'C00708'
p4285
S'HMDB12238'
p4286
sS'C10264'
p4287
S'HMDB39439'
p4288
sS'C11433'
p4289
S'HMDB60323'
p4290
sS'C10084'
p4291
S'HMDB02655'
p4292
sS'C15562'
p4293
S'HMDB33871'
p4294
sS'C00643'
p4295
S'HMDB15571'
p4296
sS'C10080'
p4297
S'HMDB35796'
p4298
sS'C00642'
p4299
S'HMDB00020'
p4300
sS'C15568'
p4301
S'HMDB00447'
p4302
sS'C00762'
p4303
S'HMDB02802'
p4304
sS'C04751'
p4305
S'HMDB06273'
p4306
sS'C00091'
p4307
S'HMDB01022'
p4308
sS'C06683'
p4309
S'HMDB15343'
p4310
sS'C16819'
p4311
S'HMDB30047'
p4312
sS'C17276'
p4313
g2654
sS'C14743'
p4314
S'HMDB31195'
p4315
sS'C00093'
p4316
S'HMDB00126'
p4317
sS'C05650'
p4318
S'HMDB01216'
p4319
sS'C05653'
p4320
S'HMDB04089'
p4321
sS'C14748'
p4322
S'HMDB60102'
p4323
sS'C05659'
p4324
S'HMDB04095'
p4325
sS'C05658'
p4326
S'HMDB04094'
p4327
sS'C00233'
p4328
S'HMDB00695'
p4329
sS'C15699'
p4330
S'HMDB12230'
p4331
sS'C14180'
p4332
S'HMDB04662'
p4333
sS'C00096'
p4334
S'HMDB01163'
p4335
sS'C14184'
p4336
S'HMDB59573'
p4337
sS'C10401'
p4338
S'HMDB32876'
p4339
sS'C10404'
p4340
S'HMDB34317'
p4341
sS'C18492'
p4342
S'HMDB31809'
p4343
sS'C14561'
p4344
S'HMDB39361'
p4345
sS'C16452'
p4346
S'HMDB41940'
p4347
sS'C16450'
p4348
S'HMDB41792'
p4349
sS'C14567'
p4350
S'HMDB34122'
p4351
sS'C13690'
p4352
S'HMDB06275'
p4353
sS'C13691'
p4354
S'HMDB04148'
p4355
sS'C05619'
p4356
S'HMDB35484'
p4357
sS'C07765'
p4358
S'HMDB14377'
p4359
sS'C13698'
p4360
S'HMDB15573'
p4361
sS'C12753'
p4362
S'HMDB15448'
p4363
sS'C00777'
p4364
S'HMDB01852'
p4365
sS'C00900'
p4366
S'HMDB06833'
p4367
sS'C01438'
p4368
S'HMDB02714'
p4369
sS'C15767'
p4370
S'HMDB12161'
p4371
sS'C10312'
p4372
S'HMDB29752'
p4373
sS'C15549'
p4374
S'HMDB31460'
p4375
sS'C18796'
p4376
S'HMDB60309'
p4377
sS'C15769'
p4378
S'HMDB38318'
p4379
sS'C14415'
p4380
S'HMDB34155'
p4381
sS'C14416'
p4382
S'HMDB33188'
p4383
sS'C01225'
p4384
S'HMDB11649'
p4385
sS'C12871'
p4386
S'HMDB15539'
p4387
sS'C02567'
p4388
S'HMDB01186'
p4389
sS'C02564'
p4390
S'HMDB59747'
p4391
sS'C02565'
p4392
S'HMDB03646'
p4393
sS'C01220'
p4394
S'HMDB00968'
p4395
sS'C07174'
p4396
S'HMDB15248'
p4397
sS'C07819'
p4398
S'HMDB14789'
p4399
sS'C03005'
p4400
S'HMDB32609'
p4401
sS'C05080'
p4402
S'HMDB15185'
p4403
sS'C03415'
p4404
S'HMDB01199'
p4405
sS'C07813'
p4406
S'HMDB14538'
p4407
sS'C16582'
p4408
S'HMDB60670'
p4409
sS'C16584'
p4410
S'HMDB60669'
p4411
sS'C16587'
p4412
S'HMDB60366'
p4413
sS'C07816'
p4414
S'HMDB14902'
p4415
sS'C07868'
p4416
S'HMDB15363'
p4417
sS'C05962'
p4418
S'HMDB04241'
p4419
sS'C01097'
p4420
S'HMDB06873'
p4421
sS'C01096'
p4422
g1867
sS'C01721'
p4423
S'HMDB60267'
p4424
sS'C01092'
p4425
S'HMDB37790'
p4426
sS'C07593'
p4427
S'HMDB34436'
p4428
sS'C01949'
p4429
S'HMDB34235'
p4430
sS'C01948'
p4431
S'HMDB31078'
p4432
sS'C05966'
p4433
S'HMDB04244'
p4434
sS'C16633'
p4435
S'HMDB60396'
p4436
sS'C03766'
p4437
S'HMDB29757'
p4438
sS'C03765'
p4439
S'HMDB03767'
p4440
sS'C16630'
p4441
S'HMDB60402'
p4442
sS'C16637'
p4443
S'HMDB60393'
p4444
sS'C16635'
p4445
S'HMDB60405'
p4446
sS'C16634'
p4447
S'HMDB60397'
p4448
sS'C03951'
p4449
S'HMDB35588'
p4450
sS'C01892'
p4451
S'HMDB29611'
p4452
sS'C08122'
p4453
S'HMDB15540'
p4454
sS'C02367'
p4455
S'HMDB10727'
p4456
sS'C02360'
p4457
S'HMDB00321'
p4458
sS'C02362'
p4459
S'HMDB60350'
p4460
sS'C05394'
p4461
S'HMDB01385'
p4462
sS'C06578'
p4463
S'HMDB35268'
p4464
sS'C02168'
p4465
S'HMDB14922'
p4466
sS'C09315'
p4467
S'HMDB29865'
p4468
sS'C01541'
p4469
S'HMDB01935'
p4470
sS'C01542'
p4471
S'HMDB02055'
p4472
sS'C01545'
p4473
S'HMDB01140'
p4474
sS'C01546'
p4475
S'HMDB00617'
p4476
sS'C02380'
p4477
g28
sS'C18418'
p4478
S'HMDB31797'
p4479
sS'C10426'
p4480
S'HMDB41006'
p4481
sS'C08019'
p4482
S'HMDB15323'
p4483
sS'C12100'
p4484
S'HMDB30997'
p4485
sS'C06806'
p4486
S'HMDB14558'
p4487
sS'C07798'
p4488
S'HMDB14465'
p4489
sS'C17467'
p4490
S'HMDB11724'
p4491
sS'C19415'
p4492
S'HMDB32565'
p4493
sS'C06442'
p4494
S'HMDB31411'
p4495
sS'C08913'
p4496
S'HMDB30048'
p4497
sS'C03166'
p4498
S'HMDB03705'
p4499
sS'C08623'
p4500
S'HMDB34964'
p4501
sS'C05594'
p4502
S'HMDB01490'
p4503
sS'C08620'
p4504
S'HMDB31458'
p4505
sS'C17890'
p4506
S'HMDB36651'
p4507
sS'C08624'
p4508
S'HMDB31438'
p4509
sS'C13712'
p4510
S'HMDB01449'
p4511
sS'C02700'
p4512
S'HMDB60485'
p4513
sS'C01835'
p4514
S'HMDB01262'
p4515
sS'C08391'
p4516
S'HMDB31634'
p4517
sS'C08390'
p4518
S'HMDB34238'
p4519
sS'C05673'
p4520
S'HMDB60067'
p4521
sS'C08398'
p4522
S'HMDB32867'
p4523
sS'C06665'
p4524
S'HMDB15536'
p4525
sS'C05672'
p4526
S'HMDB00370'
p4527
sS'C19254'
p4528
S'HMDB29707'
p4529
sS'C19255'
p4530
S'HMDB29864'
p4531
sS'C19524'
p4532
S'HMDB32523'
p4533
sS'C07391'
p4534
S'HMDB14350'
p4535
sS'C18309'
p4536
S'HMDB60368'
p4537
sS'C07397'
p4538
S'HMDB05021'
p4539
sS'C02946'
p4540
S'HMDB60265'
p4541
sS'C07395'
p4542
S'HMDB14427'
p4543
sS'C18305'
p4544
S'HMDB60346'
p4545
sS'C18304'
p4546
S'HMDB60345'
p4547
sS'C07398'
p4548
S'HMDB15019'
p4549
sS'C16551'
p4550
S'HMDB60432'
p4551
sS'C00847'
p4552
S'HMDB00017'
p4553
sS'C00846'
p4554
S'HMDB00398'
p4555
sS'C00844'
p4556
g234
sS'C07001'
p4557
S'HMDB15326'
p4558
sS'C17518'
p4559
S'HMDB36993'
p4560
sS'C07004'
p4561
S'HMDB14825'
p4562
sS'C07005'
p4563
S'HMDB14326'
p4564
sS'C17515'
p4565
S'HMDB40940'
p4566
sS'C17517'
p4567
S'HMDB36996'
p4568
sS'C03547'
p4569
S'HMDB00115'
p4570
sS'C03546'
p4571
S'HMDB01313'
p4572
sS'C03017'
p4573
S'HMDB00824'
p4574
sS'C03541'
p4575
S'HMDB06825'
p4576
sS'C03012'
p4577
S'HMDB60497'
p4578
sS'C06715'
p4579
S'HMDB12158'
p4580
sS'C06714'
p4581
S'HMDB12155'
p4582
sS'C07629'
p4583
S'HMDB14449'
p4584
sS'C06711'
p4585
S'HMDB59803'
p4586
sS'C07622'
p4587
S'HMDB14720'
p4588
sS'C07626'
p4589
S'HMDB14751'
p4590
sS'C11133'
p4591
S'HMDB04483'
p4592
sS'C07624'
p4593
S'HMDB15182'
p4594
sS'C05827'
p4595
S'HMDB04181'
p4596
sS'C00937'
p4597
S'HMDB06458'
p4598
sS'C04299'
p4599
S'HMDB01125'
p4600
sS'C00933'
p4601
S'HMDB29379'
p4602
sS'C00931'
p4603
S'HMDB00245'
p4604
sS'C08088'
p4605
S'HMDB14763'
p4606
sS'C08086'
p4607
S'HMDB14839'
p4608
sS'C08082'
p4609
S'HMDB15142'
p4610
sS'C08080'
p4611
S'HMDB14396'
p4612
sS'C00447'
p4613
S'HMDB60274'
p4614
sS'C00446'
p4615
S'HMDB00645'
p4616
sS'C12632'
p4617
S'HMDB60297'
p4618
sS'C00441'
p4619
S'HMDB12249'
p4620
sS'C00440'
p4621
S'HMDB01396'
p4622
sS'C11457'
p4623
S'HMDB00375'
p4624
sS'C11455'
p4625
S'HMDB01023'
p4626
sS'C11101'
p4627
S'HMDB34355'
p4628
sS'C00449'
p4629
S'HMDB00279'
p4630
sS'C00448'
p4631
S'HMDB00961'
p4632
sS'C08153'
p4633
g4172
sS'C08155'
p4634
S'HMDB15119'
p4635
sS'C08154'
p4636
S'HMDB15694'
p4637
sS'C08157'
p4638
S'HMDB05814'
p4639
sS'C00921'
p4640
S'HMDB01412'
p4641
sS'C08159'
p4642
S'HMDB15348'
p4643
sS'C08158'
p4644
S'HMDB15489'
p4645
sS'C09972'
p4646
S'HMDB38360'
p4647
sS'C00922'
p4648
S'HMDB36232'
p4649
sS'C07710'
p4650
S'HMDB15101'
p4651
sS'C07536'
p4652
S'HMDB15440'
p4653
sS'C07537'
p4654
S'HMDB15509'
p4655
sS'C05396'
p4656
S'HMDB06789'
p4657
sS'C07532'
p4658
S'HMDB14441'
p4659
sS'C00527'
p4660
S'HMDB01339'
p4661
sS'C07531'
p4662
S'HMDB14888'
p4663
sS'C12811'
p4664
S'HMDB15500'
p4665
sS'C07539'
p4666
S'HMDB15493'
p4667
sS'C04133'
p4668
S'HMDB06456'
p4669
sS'C04132'
p4670
S'HMDB00814'
p4671
sS'C10675'
p4672
S'HMDB29661'
p4673
sS'C10674'
p4674
S'HMDB31704'
p4675
sS'C03838'
p4676
S'HMDB02022'
p4677
sS'C03837'
p4678
S'HMDB32989'
p4679
sS'C05402'
p4680
S'HMDB00048'
p4681
sS'C05403'
p4682
S'HMDB01030'
p4683
sS'C05404'
p4684
S'HMDB60468'
p4685
sS'C00620'
p4686
S'HMDB01489'
p4687
sS'C00627'
p4688
S'HMDB01319'
p4689
sS'C15226'
p4690
S'HMDB13724'
p4691
sS'C00628'
p4692
S'HMDB00152'
p4693
sS'C06771'
p4694
S'HMDB32538'
p4695
sS'C16939'
p4696
S'HMDB02392'
p4697
sS'C02495'
p4698
S'HMDB29372'
p4699
sS'C16930'
p4700
S'HMDB34107'
p4701
sS'C00159'
p4702
S'HMDB00169'
p4703
sS'C00158'
p4704
S'HMDB00094'
p4705
sS'C00153'
p4706
S'HMDB01406'
p4707
sS'C00152'
p4708
S'HMDB00168'
p4709
sS'C00154'
p4710
S'HMDB01338'
p4711
sS'C00156'
p4712
S'HMDB00500'
p4713
sS'C16609'
p4714
S'HMDB60472'
p4715
sS'C06849'
p4716
S'HMDB14341'
p4717
sS'C05711'
p4718
S'HMDB60478'
p4719
sS'C12621'
p4720
S'HMDB01713'
p4721
sS'C09110'
p4722
S'HMDB36698'
p4723
sS'C06843'
p4724
S'HMDB14682'
p4725
sS'C12623'
p4726
S'HMDB32057'
p4727
sS'C10073'
p4728
S'HMDB30775'
p4729
sS'C10072'
p4730
S'HMDB36632'
p4731
sS'C10071'
p4732
S'HMDB29981'
p4733
sS'C10070'
p4734
S'HMDB30871'
p4735
sS'C04623'
p4736
S'HMDB32127'
p4737
sS'C04540'
p4738
S'HMDB00489'
p4739
sS'C03204'
p4740
S'HMDB06485'
p4741
sS'C00719'
p4742
S'HMDB00043'
p4743
sS'C06325'
p4744
S'HMDB00842'
p4745
sS'C10275'
p4746
S'HMDB30564'
p4747
sS'C00715'
p4748
S'HMDB00802'
p4749
sS'C00712'
p4750
S'HMDB00207'
p4751
sS'C00711'
p4752
g114
sS'C10040'
p4753
S'HMDB29469'
p4754
sS'C14088'
p4755
S'HMDB02390'
p4756
sS'C03207'
p4757
S'HMDB00995'
p4758
sS'C15571'
p4759
S'HMDB00957'
p4760
sS'C15572'
p4761
g2560
sS'C14082'
p4762
S'HMDB32860'
p4763
sS'C10098'
p4764
S'HMDB37441'
p4765
sS'C17268'
p4766
S'HMDB35243'
p4767
sS'C04720'
p4768
S'HMDB34864'
p4769
sS'C06322'
p4770
S'HMDB12207'
p4771
sS'C06323'
p4772
S'HMDB34244'
p4773
sS'C05011'
p4774
S'HMDB60530'
p4775
sS'C05660'
p4776
S'HMDB04096'
p4777
sS'C05663'
p4778
g1678
sS'C09592'
p4779
S'HMDB33439'
p4780
sS'C05665'
p4781
S'HMDB01106'
p4782
sS'C09591'
p4783
S'HMDB30246'
p4784
sS'C14774'
p4785
S'HMDB02314'
p4786
sS'C05669'
p4787
S'HMDB34259'
p4788
sS'C14776'
p4789
S'HMDB04679'
p4790
sS'C14771'
p4791
S'HMDB04264'
p4792
sS'C14772'
p4793
S'HMDB02343'
p4794
sS'C14773'
p4795
S'HMDB02311'
p4796
sS'C10419'
p4797
S'HMDB31657'
p4798
sS'C10418'
p4799
S'HMDB34214'
p4800
sS'C00330'
p4801
S'HMDB00085'
p4802
sS'C05565'
p4803
S'HMDB01212'
p4804
sS'C10415'
p4805
S'HMDB32707'
p4806
sS'C06820'
p4807
S'HMDB14622'
p4808
sS'C14792'
p4809
S'HMDB60302'
p4810
sS'C14793'
p4811
S'HMDB60299'
p4812
sS'C14791'
p4813
S'HMDB60300'
p4814
sS'C10897'
p4815
S'HMDB31769'
p4816
sS'C10896'
p4817
S'HMDB31767'
p4818
sS'C00337'
p4819
S'HMDB03349'
p4820
sS'C03985'
p4821
S'HMDB36100'
p4822
sS'C01390'
p4823
S'HMDB30124'
p4824
sS'C09621'
p4825
S'HMDB36197'
p4826
sS'C01408'
p4827
S'HMDB32039'
p4828
sS'C01159'
p4829
S'HMDB01294'
p4830
sS'C01157'
p4831
S'HMDB00725'
p4832
sS'C01407'
p4833
S'HMDB01505'
p4834
sS'C01152'
p4835
S'HMDB00479'
p4836
sS'C04431'
p4837
S'HMDB60459'
p4838
sS'C15770'
p4839
S'HMDB33733'
p4840
sS'C15777'
p4841
S'HMDB06847'
p4842
sS'C15776'
p4843
S'HMDB06845'
p4844
sS'C01412'
p4845
S'HMDB03543'
p4846
sS'C14313'
p4847
S'HMDB41655'
p4848
sS'C14311'
p4849
S'HMDB32625'
p4850
sS'C13526'
p4851
S'HMDB02783'
p4852
sS'C14314'
p4853
S'HMDB31715'
p4854
sS'C14420'
p4855
S'HMDB33209'
p4856
sS'C14427'
p4857
S'HMDB31778'
p4858
sS'C03958'
p4859
S'HMDB60080'
p4860
sS'C07825'
p4861
S'HMDB15336'
p4862
sS'C05253'
p4863
S'HMDB12144'
p4864
sS'C05252'
p4865
S'HMDB12143'
p4866
sS'C02575'
p4867
S'HMDB41974'
p4868
sS'C02576'
p4869
S'HMDB03647'
p4870
sS'C05259'
p4871
S'HMDB06402'
p4872
sS'C05258'
p4873
S'HMDB03932'
p4874
sS'C07829'
p4875
S'HMDB14987'
p4876
sS'C00819'
p4877
S'HMDB03423'
p4878
sS'C09263'
p4879
S'HMDB30819'
p4880
sS'C02903'
p4881
S'HMDB60247'
p4882
sS'C14226'
p4883
S'HMDB13825'
p4884
sS'C14550'
p4885
S'HMDB38982'
p4886
sS'C14552'
p4887
S'HMDB06031'
p4888
sS'C01710'
p4889
S'HMDB59601'
p4890
sS'C01712'
p4891
S'HMDB00573'
p4892
sS'C01716'
p4893
S'HMDB15144'
p4894
sS'C01717'
p4895
S'HMDB00715'
p4896
sS'C01970'
p4897
S'HMDB41627'
p4898
sS'C15915'
p4899
S'HMDB06840'
p4900
sS'C00539'
p4901
S'HMDB01870'
p4902
sS'C10238'
p4903
S'HMDB13690'
p4904
sS'C03711'
p4905
S'HMDB01387'
p4906
sS'C01575'
p4907
S'HMDB15451'
p4908
sS'C01576'
p4909
S'HMDB14911'
p4910
sS'C02378'
p4911
S'HMDB01901'
p4912
sS'C01570'
p4913
S'HMDB13773'
p4914
sS'C01571'
p4915
S'HMDB00511'
p4916
sS'C02373'
p4917
S'HMDB01318'
p4918
sS'C02372'
p4919
S'HMDB01169'
p4920
sS'C18131'
p4921
S'HMDB60388'
p4922
sS'C02376'
p4923
S'HMDB02894'
p4924
sS'C02375'
p4925
S'HMDB41810'
p4926
sS'C17552'
p4927
S'HMDB60355'
p4928
sS'C07889'
p4929
S'HMDB15452'
p4930
sS'C02174'
p4931
g1736
sS'C02170'
p4932
S'HMDB00202'
p4933
sS'C05381'
p4934
S'HMDB06744'
p4935
sS'C05380'
p4936
S'HMDB03269'
p4937
sS'C02394'
p4938
S'HMDB29698'
p4939
sS'C07201'
p4940
S'HMDB14710'
p4941
sS'C17559'
p4942
S'HMDB60379'
p4943
sS'C12138'
p4944
S'HMDB37997'
p4945
sS'C12139'
p4946
S'HMDB38097'
p4947
sS'C12134'
p4948
S'HMDB34014'
p4949
sS'C12136'
p4950
S'HMDB38361'
p4951
sS'C07202'
p4952
S'HMDB01932'
p4953
sS'C03626'
p4954
S'HMDB01539'
p4955
sS'C06475'
p4956
S'HMDB02685'
p4957
sS'C06476'
p4958
S'HMDB02122'
p4959
sS'C03150'
p4960
S'HMDB00855'
p4961
sS'C07224'
p4962
S'HMDB14380'
p4963
sS'C05340'
p4964
S'HMDB60441'
p4965
sS'C11180'
p4966
S'HMDB33135'
p4967
sS'C02713'
p4968
S'HMDB60493'
p4969
sS'C02712'
p4970
S'HMDB11745'
p4971
sS'C02714'
p4972
S'HMDB60268'
p4973
sS'C02717'
p4974
S'HMDB29365'
p4975
sS'C11181'
p4976
S'HMDB15255'
p4977
sS'C08369'
p4978
S'HMDB33966'
p4979
sS'C06148'
p4980
S'HMDB06823'
p4981
sS'C07553'
p4982
S'HMDB15432'
p4983
sS'C08362'
p4984
S'HMDB60082'
p4985
sS'C07381'
p4986
S'HMDB15313'
p4987
sS'C07383'
p4988
S'HMDB14945'
p4989
sS'C07122'
p4990
S'HMDB15176'
p4991
sS'C19530'
p4992
S'HMDB15522'
p4993
sS'C19245'
p4994
S'HMDB29748'
p4995
sS'C19244'
p4996
S'HMDB29749'
p4997
sS'C16038'
p4998
S'HMDB41008'
p4999
sS'C02954'
p5000
S'HMDB60618'
p5001
sS'C02953'
p5002
S'HMDB00038'
p5003
sS'C00207'
p5004
S'HMDB01659'
p5005
sS'C07010'
p5006
S'HMDB14761'
p5007
sS'C08761'
p5008
S'HMDB41294'
p5009
sS'C07841'
p5010
S'HMDB15333'
p5011
sS'C07017'
p5012
S'HMDB01933'
p5013
sS'C07490'
p5014
S'HMDB41796'
p5015
sS'C03028'
p5016
S'HMDB01512'
p5017
sS'C07129'
p5018
S'HMDB15009'
p5019
sS'C02001'
p5020
S'HMDB31652'
p5021
sS'C07493'
p5022
S'HMDB60676'
p5023
sS'C00533'
p5024
S'HMDB03378'
p5025
sS'C07837'
p5026
S'HMDB15344'
p5027
sS'C06010'
p5028
S'HMDB06855'
p5029
sS'C12249'
p5030
S'HMDB37429'
p5031
sS'C08169'
p5032
S'HMDB14952'
p5033
sS'C05269'
p5034
S'HMDB03943'
p5035
sS'C10688'
p5036
S'HMDB33122'
p5037
sS'C05529'
p5038
S'HMDB60293'
p5039
sS'C05528'
p5040
S'HMDB04045'
p5041
sS'C07631'
p5042
S'HMDB15263'
p5043
sS'C07630'
p5044
S'HMDB15413'
p5045
sS'C07633'
p5046
S'HMDB14502'
p5047
sS'C05520'
p5048
S'HMDB60273'
p5049
sS'C05527'
p5050
S'HMDB02332'
p5051
sS'C07637'
p5052
S'HMDB15684'
p5053
sS'C08505'
p5054
S'HMDB34739'
p5055
sS'C00942'
p5056
S'HMDB01314'
p5057
sS'C18205'
p5058
S'HMDB37547'
p5059
sS'C00940'
p5060
S'HMDB01552'
p5061
sS'C00026'
p5062
S'HMDB00208'
p5063
sS'C18750'
p5064
S'HMDB32706'
p5065
sS'C18203'
p5066
S'HMDB37516'
p5067
sS'C00021'
p5068
S'HMDB00939'
p5069
sS'C11686'
p5070
S'HMDB14929'
p5071
sS'C00020'
p5072
S'HMDB00045'
p5073
sS'C00433'
p5074
S'HMDB60365'
p5075
sS'C00430'
p5076
S'HMDB01149'
p5077
sS'C00431'
p5078
S'HMDB03355'
p5079
sS'C00436'
p5080
S'HMDB33458'
p5081
sS'C00437'
p5082
S'HMDB03357'
p5083
sS'C00438'
p5084
S'HMDB00828'
p5085
sS'C00439'
p5086
S'HMDB00854'
p5087
sS'C16320'
p5088
S'HMDB30996'
p5089
sS'C19331'
p5090
S'HMDB33206'
p5091
sS'C10832'
p5092
S'HMDB33812'
p5093
sS'C12486'
p5094
S'HMDB35731'
p5095
sS'C18904'
p5096
S'HMDB60490'
p5097
sS'C06123'
p5098
S'HMDB60482'
p5099
sS'C03440'
p5100
S'HMDB60460'
p5101
sS'C08164'
p5102
S'HMDB14803'
p5103
sS'C07704'
p5104
S'HMDB14829'
p5105
sS'C08166'
p5106
S'HMDB14679'
p5107
sS'C07706'
p5108
S'HMDB14928'
p5109
sS'C08163'
p5110
S'HMDB15141'
p5111
sS'C07525'
p5112
S'HMDB15352'
p5113
sS'C05416'
p5114
S'HMDB00941'
p5115
sS'C07527'
p5116
S'HMDB04992'
p5117
sS'C05414'
p5118
S'HMDB02272'
p5119
sS'C07521'
p5120
S'HMDB14737'
p5121
sS'C07520'
p5122
S'HMDB15366'
p5123
sS'C05411'
p5124
g3110
sS'C07529'
p5125
S'HMDB14442'
p5126
sS'C07528'
p5127
S'HMDB15096'
p5128
sS'C12864'
p5129
S'HMDB15605'
p5130
sS'C08187'
p5131
S'HMDB14393'
p5132
sS'C03840'
p5133
S'HMDB30773'
p5134
sS'C03844'
p5135
S'HMDB34219'
p5136
sS'C03845'
p5137
S'HMDB06841'
p5138
sS'C16927'
p5139
S'HMDB34968'
p5140
sS'C00388'
p5141
S'HMDB60263'
p5142
sS'C00389'
p5143
S'HMDB05794'
p5144
sS'C03114'
p5145
S'HMDB03701'
p5146
sS'C00386'
p5147
S'HMDB00033'
p5148
sS'C00387'
p5149
S'HMDB00133'
p5150
sS'C00380'
p5151
S'HMDB00630'
p5152
sS'C11208'
p5153
S'HMDB31795'
p5154
sS'C00894'
p5155
S'HMDB02307'
p5156
sS'C00548'
p5157
g4272
sS'C00897'
p5158
S'HMDB37138'
p5159
sS'C00546'
p5160
S'HMDB01167'
p5161
sS'C00899'
p5162
S'HMDB06216'
p5163
sS'C00544'
p5164
S'HMDB00130'
p5165
sS'C11155'
p5166
S'HMDB33835'
p5167
sS'C00543'
p5168
S'HMDB00087'
p5169
sS'C00366'
p5170
S'HMDB00289'
p5171
sS'C00364'
p5172
S'HMDB01227'
p5173
sS'C00365'
p5174
S'HMDB01409'
p5175
sS'C00362'
p5176
S'HMDB01044'
p5177
sS'C00363'
p5178
S'HMDB01274'
p5179
sS'C00360'
p5180
S'HMDB00905'
p5181
sS'C00361'
p5182
S'HMDB00960'
p5183
sS'C07937'
p5184
S'HMDB14878'
p5185
sS'C05703'
p5186
S'HMDB60488'
p5187
sS'C06879'
p5188
S'HMDB15421'
p5189
sS'C08988'
p5190
S'HMDB02395'
p5191
sS'C06871'
p5192
S'HMDB14886'
p5193
sS'C06873'
p5194
S'HMDB14407'
p5195
sS'C06874'
p5196
S'HMDB14662'
p5197
sS'C06875'
p5198
S'HMDB15267'
p5199
sS'C06877'
p5200
S'HMDB14971'
p5201
sS'C11061'
p5202
S'HMDB03141'
p5203
sS'C10315'
p5204
S'HMDB30670'
p5205
sS'C04654'
p5206
S'HMDB01320'
p5207
sS'C15368'
p5208
S'HMDB41997'
p5209
sS'C00099'
p5210
S'HMDB00056'
p5211
sS'C16815'
p5212
S'HMDB38205'
p5213
sS'C00090'
p5214
g4760
sS'C00763'
p5215
S'HMDB03411'
p5216
sS'C00092'
p5217
S'HMDB01401'
p5218
sS'C00761'
p5219
S'HMDB13682'
p5220
sS'C00094'
p5221
S'HMDB34829'
p5222
sS'C00767'
p5223
g90
sS'C10246'
p5224
S'HMDB38778'
p5225
sS'C00097'
p5226
S'HMDB00574'
p5227
sS'C14099'
p5228
S'HMDB60349'
p5229
sS'C17213'
p5230
S'HMDB30406'
p5231
sS'C10106'
p5232
S'HMDB36631'
p5233
sS'C14090'
p5234
S'HMDB60325'
p5235
sS'C05482'
p5236
S'HMDB03180'
p5237
sS'C06754'
p5238
S'HMDB13860'
p5239
sS'C04734'
p5240
S'HMDB01439'
p5241
sS'C09640'
p5242
S'HMDB12469'
p5243
sS'C07115'
p5244
S'HMDB15025'
p5245
sS'C13884'
p5246
S'HMDB03642'
p5247
sS'C14769'
p5248
S'HMDB02232'
p5249
sS'C14768'
p5250
S'HMDB02190'
p5251
sS'C15778'
p5252
S'HMDB60404'
p5253
sS'C14390'
p5254
S'HMDB31475'
p5255
sS'C14762'
p5256
S'HMDB04667'
p5257
sS'C05674'
p5258
S'HMDB60072'
p5259
sS'C14767'
p5260
S'HMDB04670'
p5261
sS'C14766'
p5262
S'HMDB04669'
p5263
sS'C14765'
p5264
S'HMDB04668'
p5265
sS'C05670'
p5266
S'HMDB04101'
p5267
sS'C00164'
p5268
S'HMDB00060'
p5269
sS'C00166'
p5270
S'HMDB00205'
p5271
sS'C00167'
p5272
S'HMDB00935'
p5273
sS'C00160'
p5274
g4570
sS'C00163'
p5275
S'HMDB00237'
p5276
sS'C00168'
p5277
S'HMDB01352'
p5278
sS'C00169'
p5279
S'HMDB01096'
p5280
sS'C14163'
p5281
S'HMDB32018'
p5282
sS'C00877'
p5283
S'HMDB02009'
p5284
sS'C14787'
p5285
S'HMDB60301'
p5286
sS'C14781'
p5287
S'HMDB05050'
p5288
sS'C14782'
p5289
S'HMDB04684'
p5290
sS'C04405'
p5291
S'HMDB01356'
p5292
sS'C11150'
p5293
S'HMDB42048'
p5294
sS'C01389'
p5295
S'HMDB02019'
p5296
sS'C04244'
p5297
S'HMDB02065'
p5298
sS'C01382'
p5299
S'HMDB00675'
p5300
sS'C10063'
p5301
S'HMDB30700'
p5302
sS'C01387'
p5303
S'HMDB01485'
p5304
sS'C01384'
p5305
S'HMDB00176'
p5306
sS'C00700'
p5307
S'HMDB00293'
p5308
sS'C01419'
p5309
S'HMDB00078'
p5310
sS'C12289'
p5311
S'HMDB30029'
p5312
sS'C01149'
p5313
S'HMDB01345'
p5314
sS'C01413'
p5315
S'HMDB03638'
p5316
sS'C04424'
p5317
S'HMDB06868'
p5318
sS'C13834'
p5319
S'HMDB34284'
p5320
sS'C01146'
p5321
S'HMDB06938'
p5322
sS'C09633'
p5323
S'HMDB36470'
p5324
sS'C01143'
p5325
S'HMDB01090'
p5326
sS'C01142'
p5327
S'HMDB12114'
p5328
sS'C10331'
p5329
S'HMDB29673'
p5330
sS'C14302'
p5331
S'HMDB32559'
p5332
sS'C15783'
p5333
S'HMDB06852'
p5334
sS'C15780'
p5335
S'HMDB06848'
p5336
sS'C00705'
p5337
S'HMDB01245'
p5338
sS'C19167'
p5339
S'HMDB59882'
p5340
sS'C14437'
p5341
S'HMDB30524'
p5342
sS'C14436'
p5343
S'HMDB31781'
p5344
sS'C00409'
p5345
S'HMDB03227'
p5346
sS'C14430'
p5347
S'HMDB33956'
p5348
sS'C07832'
p5349
S'HMDB15165'
p5350
sS'C07751'
p5351
S'HMDB14349'
p5352
sS'C05268'
p5353
S'HMDB03942'
p5354
sS'C02549'
p5355
S'HMDB38111'
p5356
sS'C07834'
p5357
S'HMDB32456'
p5358
sS'C05265'
p5359
S'HMDB03939'
p5360
sS'C07839'
p5361
S'HMDB14892'
p5362
sS'C05267'
p5363
S'HMDB03941'
p5364
sS'C05260'
p5365
S'HMDB03934'
p5366
sS'C05262'
p5367
S'HMDB03936'
p5368
sS'C05263'
p5369
S'HMDB03937'
p5370
sS'C11042'
p5371
S'HMDB32566'
p5372
sS'C13782'
p5373
S'HMDB30323'
p5374
sS'C01709'
p5375
S'HMDB05782'
p5376
sS'C07759'
p5377
S'HMDB14702'
p5378
sS'C13014'
p5379
S'HMDB32708'
p5380
sS'C01967'
p5381
S'HMDB06707'
p5382
sS'C01965'
p5383
S'HMDB14583'
p5384
sS'C01963'
p5385
S'HMDB32075'
p5386
sS'C01563'
p5387
S'HMDB03551'
p5388
sS'C17144'
p5389
S'HMDB30070'
p5390
sS'C17145'
p5391
S'HMDB31295'
p5392
sS'C06506'
p5393
S'HMDB01083'
p5394
sS'C17148'
p5395
S'HMDB02364'
p5396
sS'C01367'
p5397
S'HMDB03540'
p5398
sS'C02499'
p5399
S'HMDB32582'
p5400
sS'C13650'
p5401
S'HMDB06543'
p5402
sS'C02140'
p5403
S'HMDB01547'
p5404
sS'C08353'
p5405
S'HMDB12194'
p5406
sS'C01368'
p5407
S'HMDB60282'
p5408
sS'C02494'
p5409
S'HMDB03331'
p5410
sS'C02147'
p5411
S'HMDB12210'
p5412
sS'C05840'
p5413
S'HMDB01131'
p5414
sS'C05841'
p5415
S'HMDB06809'
p5416
sS'C05842'
p5417
S'HMDB04193'
p5418
sS'C05843'
p5419
S'HMDB04194'
p5420
sS'C05844'
p5421
S'HMDB04195'
p5422
sS'C03479'
p5423
S'HMDB01562'
p5424
sS'C05847'
p5425
g2958
sS'C05848'
p5426
g4922
sS'C02817'
p5427
S'HMDB01219'
p5428
sS'C12449'
p5429
S'HMDB06348'
p5430
sS'C02810'
p5431
g1867
sS'C12128'
p5432
S'HMDB30822'
p5433
sS'C12127'
p5434
S'HMDB38365'
p5435
sS'C12125'
p5436
S'HMDB33994'
p5437
sS'C08057'
p5438
S'HMDB14405'
p5439
sS'C17629'
p5440
S'HMDB37668'
p5441
sS'C02723'
p5442
S'HMDB60258'
p5443
sS'C00603'
p5444
S'HMDB01005'
p5445
sS'C06462'
p5446
S'HMDB06465'
p5447
sS'C03141'
p5448
S'HMDB32175'
p5449
sS'C05946'
p5450
S'HMDB60466'
p5451
sS'C02728'
p5452
S'HMDB02038'
p5453
sS'C05284'
p5454
S'HMDB06773'
p5455
sS'C05285'
p5456
S'HMDB06772'
p5457
sS'C05282'
p5458
S'HMDB11737'
p5459
sS'C02335'
p5460
S'HMDB06805'
p5461
sS'C05280'
p5462
S'HMDB03952'
p5463
sS'C09332'
p5464
g4576
sS'C18325'
p5465
S'HMDB37107'
p5466
sS'C17624'
p5467
S'HMDB38370'
p5468
sS'C08379'
p5469
S'HMDB31036'
p5470
sS'C08374'
p5471
S'HMDB31444'
p5472
sS'C08376'
p5473
S'HMDB30092'
p5474
sS'C08371'
p5475
S'HMDB05879'
p5476
sS'C08370'
p5477
S'HMDB36491'
p5478
sS'C08373'
p5479
S'HMDB31472'
p5480
sS'C08372'
p5481
S'HMDB13780'
p5482
sS'C19501'
p5483
S'HMDB31647'
p5484
sS'C19503'
p5485
g248
sS'C19504'
p5486
g2429
sS'C12012'
p5487
S'HMDB14700'
p5488
sS'C19506'
p5489
g716
sS'C17530'
p5490
S'HMDB31523'
p5491
sS'C02920'
p5492
S'HMDB31720'
p5493
sS'C07849'
p5494
S'HMDB15075'
p5495
sS'C02926'
p5496
S'HMDB29387'
p5497
sS'C02924'
p5498
S'HMDB15677'
p5499
sS'C08543'
p5500
S'HMDB12221'
p5501
sS'C17846'
p5502
S'HMDB31469'
p5503
sS'C03031'
p5504
S'HMDB11641'
p5505
sS'C07020'
p5506
S'HMDB15371'
p5507
sS'C02498'
p5508
S'HMDB31231'
p5509
sS'C07022'
p5510
S'HMDB15151'
p5511
sS'C02037'
p5512
S'HMDB11733'
p5513
sS'C06001'
p5514
S'HMDB00023'
p5515
sS'C06002'
p5516
S'HMDB02217'
p5517
sS'C05446'
p5518
S'HMDB01231'
p5519
sS'C06007'
p5520
S'HMDB12140'
p5521
sS'C06006'
p5522
S'HMDB06900'
p5523
sS'C08052'
p5524
S'HMDB14965'
p5525
sS'C05447'
p5526
S'HMDB06895'
p5527
sS'C06738'
p5528
S'HMDB30677'
p5529
sS'C12786'
p5530
S'HMDB15291'
p5531
sS'C06730'
p5532
S'HMDB00873'
p5533
sS'C00951'
p5534
S'HMDB00151'
p5535
sS'C00955'
p5536
S'HMDB03447'
p5537
sS'C00954'
p5538
S'HMDB00197'
p5539
sS'C00957'
p5540
S'HMDB01368'
p5541
sS'C00959'
p5542
S'HMDB02982'
p5543
sS'C18749'
p5544
S'HMDB31806'
p5545
sS'C18748'
p5546
S'HMDB31224'
p5547
sS'C12303'
p5548
S'HMDB33945'
p5549
sS'C12650'
p5550
S'HMDB15233'
p5551
sS'C00423'
p5552
S'HMDB00930'
p5553
sS'C06422'
p5554
S'HMDB00055'
p5555
sS'C12307'
p5556
S'HMDB11623'
p5557
sS'C12306'
p5558
S'HMDB40206'
p5559
sS'C12305'
p5560
S'HMDB34172'
p5561
sS'C12304'
p5562
S'HMDB31325'
p5563
sS'C00429'
p5564
S'HMDB00076'
p5565
sS'C16312'
p5566
S'HMDB30693'
p5567
sS'C19346'
p5568
S'HMDB32040'
p5569
sS'C16315'
p5570
S'HMDB38001'
p5571
sS'C07287'
p5572
S'HMDB35915'
p5573
sS'C03455'
p5574
S'HMDB60338'
p5575
sS'C03451'
p5576
S'HMDB01066'
p5577
sS'C08173'
p5578
S'HMDB15459'
p5579
sS'C07585'
p5580
S'HMDB41821'
p5581
sS'C07736'
p5582
S'HMDB15210'
p5583
sS'C07511'
p5584
S'HMDB14795'
p5585
sS'C05460'
p5586
S'HMDB06889'
p5587
sS'C07513'
p5588
S'HMDB14861'
p5589
sS'C07514'
p5590
S'HMDB14328'
p5591
sS'C05467'
p5592
S'HMDB06891'
p5593
sS'C07516'
p5594
S'HMDB14373'
p5595
sS'C07517'
p5596
S'HMDB15162'
p5597
sS'C07518'
p5598
S'HMDB14891'
p5599
sS'C07519'
p5600
S'HMDB15320'
p5601
sS'C05469'
p5602
S'HMDB06758'
p5603
sS'C11782'
p5604
S'HMDB60548'
p5605
sS'C18438'
p5606
S'HMDB33145'
p5607
sS'C18041'
p5608
S'HMDB60408'
p5609
sS'C10653'
p5610
S'HMDB38590'
p5611
sS'C03852'
p5612
S'HMDB60437'
p5613
sS'C10654'
p5614
S'HMDB33349'
p5615
sS'C16952'
p5616
S'HMDB38457'
p5617
sS'C00399'
p5618
S'HMDB06709'
p5619
sS'C00398'
p5620
S'HMDB00303'
p5621
sS'C00392'
p5622
S'HMDB00765'
p5623
sS'C11278'
p5624
S'HMDB60431'
p5625
sS'C00390'
p5626
S'HMDB01304'
p5627
sS'C00397'
p5628
S'HMDB14822'
p5629
sS'C00396'
p5630
S'HMDB03361'
p5631
sS'C15205'
p5632
S'HMDB13835'
p5633
sS'C07356'
p5634
S'HMDB15126'
p5635
sS'C07606'
p5636
S'HMDB34271'
p5637
sS'C07607'
p5638
S'HMDB14782'
p5639
sS'C07600'
p5640
S'HMDB33963'
p5641
sS'C05235'
p5642
S'HMDB06961'
p5643
sS'C00888'
p5644
S'HMDB13037'
p5645
sS'C00555'
p5646
g4882
sS'C00557'
p5647
S'HMDB31407'
p5648
sS'C00884'
p5649
S'HMDB00745'
p5650
sS'C09822'
p5651
S'HMDB31342'
p5652
sS'C00553'
p5653
S'HMDB35763'
p5654
sS'C07359'
p5655
S'HMDB61121'
p5656
sS'C06866'
p5657
S'HMDB02227'
p5658
sS'C00376'
p5659
S'HMDB01358'
p5660
sS'C00371'
p5661
S'HMDB12204'
p5662
sS'C06862'
p5663
S'HMDB15143'
p5664
sS'C06861'
p5665
S'HMDB14633'
p5666
sS'C06860'
p5667
S'HMDB01510'
p5668
sS'C00575'
p5669
S'HMDB00058'
p5670
sS'C06869'
p5671
S'HMDB14717'
p5672
sS'C06868'
p5673
S'HMDB14704'
p5674
sS'C00660'
p5675
g3437
sS'C07584'
p5676
S'HMDB14641'
p5677
sS'C08995'
p5678
S'HMDB33488'
p5679
sS'C11110'
p5680
S'HMDB40292'
p5681
sS'C08993'
p5682
S'HMDB33940'
p5683
sS'C00086'
p5684
S'HMDB00294'
p5685
sS'C00084'
p5686
S'HMDB00990'
p5687
sS'C10253'
p5688
S'HMDB39097'
p5689
sS'C00082'
p5690
S'HMDB00158'
p5691
sS'C00081'
p5692
S'HMDB00189'
p5693
sS'C00080'
p5694
S'HMDB59597'
p5695
sS'C04640'
p5696
S'HMDB00999'
p5697
sS'C05579'
p5698
S'HMDB06779'
p5699
sS'C12599'
p5700
S'HMDB15017'
p5701
sS'C04644'
p5702
S'HMDB02159'
p5703
sS'C00089'
p5704
S'HMDB00258'
p5705
sS'C04646'
p5706
S'HMDB60416'
p5707
sS'C10788'
p5708
S'HMDB02899'
p5709
sS'C10914'
p5710
S'HMDB34853'
p5711
sS'C11527'
p5712
S'HMDB00822'
p5713
sS'C00774'
p5714
S'HMDB03306'
p5715
sS'C10787'
p5716
S'HMDB34158'
p5717
sS'C15559'
p5718
S'HMDB02496'
p5719
sS'C16513'
p5720
S'HMDB06528'
p5721
sS'C15557'
p5722
S'HMDB00698'
p5723
sS'C15554'
p5724
S'HMDB60553'
p5725
sS'C07880'
p5726
S'HMDB00946'
p5727
sS'C11251'
p5728
S'HMDB00885'
p5729
sS'C09001'
p5730
S'HMDB32950'
p5731
sS'C07881'
p5732
S'HMDB14783'
p5733
sS'C07589'
p5734
S'HMDB05014'
p5735
sS'C04706'
p5736
S'HMDB60455'
p5737
sS'C07588'
p5738
S'HMDB00840'
p5739
sS'C05608'
p5740
S'HMDB40986'
p5741
sS'C07884'
p5742
S'HMDB15516'
p5743
sS'C07371'
p5744
S'HMDB14932'
p5745
sS'C10438'
p5746
g5553
sS'C05607'
p5747
S'HMDB00748'
p5748
sS'C05604'
p5749
S'HMDB04067'
p5750
sS'C16453'
p5751
S'HMDB11603'
p5752
sS'C00170'
p5753
S'HMDB01173'
p5754
sS'C00177'
p5755
S'HMDB02084'
p5756
sS'C00175'
p5757
S'HMDB00608'
p5758
sS'C14151'
p5759
S'HMDB02902'
p5760
sS'C00179'
p5761
S'HMDB60259'
p5762
sS'C14153'
p5763
S'HMDB06327'
p5764
sS'C14155'
p5765
S'HMDB12958'
p5766
sS'C07239'
p5767
S'HMDB15005'
p5768
sS'C14562'
p5769
S'HMDB32563'
p5770
sS'C02727'
p5771
S'HMDB00206'
p5772
sS'C06307'
p5773
S'HMDB36559'
p5774
sS'C01179'
p5775
S'HMDB00707'
p5776
sS'C14330'
p5777
S'HMDB59764'
p5778
sS'C13828'
p5779
S'HMDB13625'
p5780
sS'C09642'
p5781
S'HMDB42012'
p5782
sS'C04411'
p5783
S'HMDB12156'
p5784
sS'C13827'
p5785
S'HMDB29596'
p5786
sS'C09644'
p5787
S'HMDB34435'
p5788
sS'C05119'
p5789
S'HMDB06867'
p5790
sS'C08233'
p5791
S'HMDB15022'
p5792
sS'C08302'
p5793
S'HMDB05973'
p5794
sS'C14449'
p5795
S'HMDB34232'
p5796
sS'C07407'
p5797
S'HMDB01849'
p5798
sS'C16794'
p5799
S'HMDB04085'
p5800
sS'C03147'
p5801
S'HMDB39495'
p5802
sS'C07404'
p5803
S'HMDB15202'
p5804
sS'C01284'
p5805
S'HMDB03529'
p5806
sS'C16559'
p5807
S'HMDB60691'
p5808
sS'C05273'
p5809
S'HMDB03946'
p5810
sS'C16557'
p5811
S'HMDB60692'
p5812
sS'C05271'
p5813
S'HMDB03944'
p5814
sS'C16555'
p5815
S'HMDB13859'
p5816
sS'C16552'
p5817
S'HMDB60688'
p5818
sS'C16553'
p5819
S'HMDB13861'
p5820
sS'C16550'
p5821
S'HMDB60881'
p5822
sS'C07403'
p5823
S'HMDB14577'
p5824
sS'C01772'
p5825
S'HMDB02641'
p5826
sS'C01516'
p5827
S'HMDB14440'
p5828
sS'C01770'
p5829
S'HMDB00549'
p5830
sS'C01771'
p5831
S'HMDB10720'
p5832
sS'C05079'
p5833
S'HMDB14917'
p5834
sS'C01779'
p5835
S'HMDB14659'
p5836
sS'C14200'
p5837
S'HMDB32063'
p5838
sS'C04895'
p5839
S'HMDB00980'
p5840
sS'C14204'
p5841
S'HMDB60949'
p5842
sS'C14205'
p5843
S'HMDB32528'
p5844
sS'C00356'
p5845
S'HMDB01375'
p5846
sS'C05283'
p5847
S'HMDB11738'
p5848
sS'C01008'
p5849
S'HMDB12295'
p5850
sS'C15974'
p5851
S'HMDB06865'
p5852
sS'C15976'
p5853
S'HMDB06866'
p5854
sS'C01912'
p5855
S'HMDB14344'
p5856
sS'C15978'
p5857
S'HMDB12310'
p5858
sS'C14442'
p5859
S'HMDB41893'
p5860
sS'C02862'
p5861
S'HMDB02013'
p5862
sS'C02155'
p5863
S'HMDB00759'
p5864
sS'C00511'
p5865
g5484
sS'C01598'
p5866
S'HMDB01389'
p5867
sS'C01594'
p5868
S'HMDB33699'
p5869
sS'C01595'
p5870
S'HMDB00673'
p5871
sS'C01590'
p5872
S'HMDB34213'
p5873
sS'C01353'
p5874
S'HMDB03538'
p5875
sS'C01608'
p5876
S'HMDB14694'
p5877
sS'C01606'
p5878
S'HMDB02107'
p5879
sS'C01607'
p5880
S'HMDB00801'
p5881
sS'C01604'
p5882
S'HMDB36634'
p5883
sS'C01602'
p5884
S'HMDB32455'
p5885
sS'C01601'
p5886
S'HMDB00847'
p5887
sS'C02809'
p5888
S'HMDB60560'
p5889
sS'C05859'
p5890
g2130
sS'C04524'
p5891
S'HMDB59651'
p5892
sS'C05853'
p5893
S'HMDB33944'
p5894
sS'C05852'
p5895
S'HMDB00669'
p5896
sS'C05851'
p5897
S'HMDB01218'
p5898
sS'C01829'
p5899
S'HMDB00248'
p5900
sS'C05239'
p5901
S'HMDB03929'
p5902
sS'C16774'
p5903
S'HMDB38197'
p5904
sS'C02735'
p5905
S'HMDB01065'
p5906
sS'C16779'
p5907
S'HMDB36071'
p5908
sS'C05295'
p5909
S'HMDB03959'
p5910
sS'C05294'
p5911
S'HMDB60089'
p5912
sS'C05296'
p5913
S'HMDB06771'
p5914
sS'C05290'
p5915
S'HMDB03955'
p5916
sS'C05293'
p5917
S'HMDB06770'
p5918
sS'C05299'
p5919
S'HMDB00010'
p5920
sS'C05298'
p5921
S'HMDB00343'
p5922
sS'C08348'
p5923
S'HMDB03402'
p5924
sS'C08349'
p5925
S'HMDB30091'
p5926
sS'C03196'
p5927
S'HMDB00694'
p5928
sS'C03197'
p5929
S'HMDB00442'
p5930
sS'C04067'
p5931
S'HMDB32306'
p5932
sS'C02939'
p5933
S'HMDB01113'
p5934
sS'C02938'
p5935
S'HMDB06524'
p5936
sS'C17544'
p5937
S'HMDB34994'
p5938
sS'C12580'
p5939
S'HMDB15240'
p5940
sS'C02934'
p5941
S'HMDB01480'
p5942
sS'C16015'
p5943
S'HMDB12111'
p5944
sS'C16014'
p5945
S'HMDB59631'
p5946
sS'C06035'
p5947
S'HMDB37759'
p5948
sS'C00755'
p5949
S'HMDB12308'
p5950
sS'C03044'
p5951
S'HMDB33007'
p5952
sS'C07037'
p5953
S'HMDB15153'
p5954
sS'C07036'
p5955
S'HMDB15301'
p5956
sS'C07035'
p5957
S'HMDB14371'
p5958
sS'C08743'
p5959
S'HMDB41016'
p5960
sS'C03284'
p5961
S'HMDB02166'
p5962
sS'C03287'
p5963
S'HMDB01228'
p5964
sS'C02029'
p5965
S'HMDB12215'
p5966
sS'C03283'
p5967
S'HMDB06284'
p5968
sS'C08491'
p5969
S'HMDB32797'
p5970
sS'C05439'
p5971
S'HMDB06842'
p5972
sS'C02154'
p5973
S'HMDB01051'
p5974
sS'C03998'
p5975
S'HMDB59612'
p5976
sS'C06749'
p5977
S'HMDB12179'
p5978
sS'C01792'
p5979
S'HMDB59603'
p5980
sS'C04092'
p5981
S'HMDB01084'
p5982
sS'C07297'
p5983
S'HMDB02057'
p5984
sS'C18771'
p5985
S'HMDB31811'
p5986
sS'C07295'
p5987
S'HMDB12259'
p5988
sS'C07294'
p5989
S'HMDB12258'
p5990
sS'C00969'
p5991
S'HMDB03453'
p5992
sS'C16301'
p5993
S'HMDB29247'
p5994
sS'C16300'
p5995
S'HMDB06547'
p5996
sS'C00964'
p5997
S'HMDB03450'
p5998
sS'C16309'
p5999
S'HMDB37326'
p6000
sS'C16308'
p6001
S'HMDB00933'
p6002
sS'C09900'
p6003
S'HMDB05806'
p6004
sS'C09902'
p6005
S'HMDB04043'
p6006
sS'C00418'
p6007
S'HMDB59629'
p6008
sS'C09904'
p6009
S'HMDB35213'
p6010
sS'C09906'
p6011
S'HMDB36115'
p6012
sS'C00414'
p6013
S'HMDB03315'
p6014
sS'C00415'
p6015
S'HMDB01056'
p6016
sS'C00417'
p6017
S'HMDB00072'
p6018
sS'C19355'
p6019
S'HMDB31327'
p6020
sS'C07471'
p6021
S'HMDB15654'
p6022
sS'C12662'
p6023
S'HMDB15418'
p6024
sS'C00413'
p6025
S'HMDB15214'
p6026
sS'C03460'
p6027
S'HMDB01011'
p6028
sS'C03461'
p6029
S'HMDB60356'
p6030
sS'C06102'
p6031
S'HMDB12882'
p6032
sS'C06103'
p6033
S'HMDB12843'
p6034
sS'C06104'
p6035
S'HMDB00448'
p6036
sS'C06105'
p6037
S'HMDB31344'
p6038
sS'C17497'
p6039
S'HMDB32590'
p6040
sS'C05471'
p6041
S'HMDB03259'
p6042
sS'C12685'
p6043
S'HMDB14744'
p6044
sS'C07508'
p6045
S'HMDB14808'
p6046
sS'C07506'
p6047
S'HMDB14920'
p6048
sS'C07505'
p6049
S'HMDB14731'
p6050
sS'C07504'
p6051
S'HMDB15045'
p6052
sS'C07503'
p6053
S'HMDB15042'
p6054
sS'C07502'
p6055
S'HMDB05034'
p6056
sS'C07501'
p6057
S'HMDB15084'
p6058
sS'C07500'
p6059
S'HMDB15212'
p6060
sS'C11792'
p6061
S'HMDB41913'
p6062
sS'C09859'
p6063
g3999
sS'C11798'
p6064
S'HMDB15639'
p6065
sS'C14847'
p6066
S'HMDB60381'
p6067
sS'C11263'
p6068
S'HMDB39238'
p6069
sS'C11262'
p6070
S'HMDB15063'
p6071
sS'C14842'
p6072
S'HMDB60445'
p6073
sS'C14840'
p6074
S'HMDB60446'
p6075
sS'C14841'
p6076
S'HMDB32059'
p6077
sS'C11269'
p6078
S'HMDB30520'
p6079
sS'C18170'
p6080
S'HMDB12880'
p6081
sS'C14848'
p6082
S'HMDB60358'
p6083
sS'C14849'
p6084
S'HMDB60090'
p6085
sS'C07613'
p6086
S'HMDB14804'
p6087
sS'C08526'
p6088
S'HMDB14812'
p6089
sS'C07610'
p6090
S'HMDB30583'
p6091
sS'C07341'
p6092
S'HMDB15228'
p6093
sS'C07343'
p6094
S'HMDB01295'
p6095
sS'C07342'
p6096
S'HMDB15420'
p6097
sS'C00561'
p6098
S'HMDB34666'
p6099
sS'C07619'
p6100
S'HMDB15579'
p6101
sS'C09836'
p6102
S'HMDB35766'
p6103
sS'C00565'
p6104
S'HMDB00906'
p6105
sS'C09833'
p6106
S'HMDB30090'
p6107
sS'C12205'
p6108
S'HMDB60398'
p6109
sS'C06813'
p6110
S'HMDB41950'
p6111
sS'C06810'
p6112
S'HMDB14925'
p6113
sS'C06817'
p6114
S'HMDB14548'
p6115
sS'C00346'
p6116
S'HMDB00224'
p6117
sS'C00121'
p6118
S'HMDB00283'
p6119
sS'C14572'
p6120
S'HMDB59819'
p6121
sS'C00349'
p6122
S'HMDB01172'
p6123
sS'C06818'
p6124
S'HMDB15051'
p6125
sS'C06819'
p6126
S'HMDB15274'
p6127
sS'C10192'
p6128
S'HMDB29620'
p6129
sS'C00873'
p6130
S'HMDB61196'
p6131
sS'C10204'
p6132
S'HMDB33924'
p6133
sS'C04677'
p6134
S'HMDB01517'
p6135
sS'C04671'
p6136
S'HMDB02776'
p6137
sS'C10222'
p6138
g1558
sS'C00745'
p6139
S'HMDB01934'
p6140
sS'C00747'
p6141
S'HMDB00926'
p6142
sS'C00740'
p6143
S'HMDB03406'
p6144
sS'C00741'
p6145
S'HMDB03407'
p6146
sS'C00742'
p6147
S'HMDB00662'
p6148
sS'C04079'
p6149
S'HMDB06834'
p6150
sS'C00986'
p6151
S'HMDB00002'
p6152
sS'C00984'
p6153
S'HMDB00143'
p6154
sS'C12512'
p6155
S'HMDB14838'
p6156
sS'C00420'
p6157
S'HMDB38852'
p6158
sS'C12518'
p6159
S'HMDB29599'
p6160
sS'C00989'
p6161
g2964
sS'C15520'
p6162
S'HMDB06280'
p6163
sS'C06928'
p6164
S'HMDB15138'
p6165
sS'C04712'
p6166
S'HMDB60316'
p6167
sS'C06924'
p6168
S'HMDB14507'
p6169
sS'C06925'
p6170
S'HMDB14519'
p6171
sS'C04717'
p6172
S'HMDB03871'
p6173
sS'C06923'
p6174
S'HMDB15278'
p6175
sS'C06921'
p6176
S'HMDB14766'
p6177
sS'C14147'
p6178
S'HMDB29862'
p6179
sS'C05613'
p6180
S'HMDB41485'
p6181
sS'C10680'
p6182
S'HMDB29646'
p6183
sS'C10681'
p6184
S'HMDB34319'
p6185
sS'C10682'
p6186
S'HMDB35698'
p6187
sS'C05627'
p6188
S'HMDB04072'
p6189
sS'C03527'
p6190
S'HMDB32913'
p6191
sS'C00188'
p6192
S'HMDB00167'
p6193
sS'C00189'
p6194
S'HMDB00149'
p6195
sS'C00186'
p6196
S'HMDB00190'
p6197
sS'C10689'
p6198
S'HMDB33480'
p6199
sS'C00184'
p6200
S'HMDB01882'
p6201
sS'C00182'
p6202
S'HMDB00757'
p6203
sS'C00183'
p6204
S'HMDB00883'
p6205
sS'C00180'
p6206
g4902
sS'C00181'
p6207
S'HMDB00098'
p6208
sS'C10719'
p6209
S'HMDB14325'
p6210
sS'C06537'
p6211
S'HMDB29838'
p6212
sS'C01165'
p6213
S'HMDB02104'
p6214
sS'C01164'
p6215
S'HMDB00032'
p6216
sS'C01161'
p6217
S'HMDB01336'
p6218
sS'C16586'
p6219
S'HMDB60351'
p6220
sS'C04409'
p6221
S'HMDB01330'
p6222
sS'C01168'
p6223
S'HMDB01271'
p6224
sS'C14322'
p6225
S'HMDB41856'
p6226
sS'C05107'
p6227
S'HMDB03896'
p6228
sS'C05100'
p6229
S'HMDB02031'
p6230
sS'C14324'
p6231
S'HMDB32943'
p6232
sS'C05109'
p6233
S'HMDB06839'
p6234
sS'C05629'
p6235
S'HMDB00764'
p6236
sS'C10359'
p6237
S'HMDB30328'
p6238
sS'C14458'
p6239
S'HMDB05897'
p6240
sS'C14452'
p6241
S'HMDB31581'
p6242
sS'C16787'
p6243
S'HMDB30401'
p6244
sS'C14454'
p6245
S'HMDB29642'
p6246
sS'C16549'
p6247
S'HMDB60668'
p6248
sS'C16548'
p6249
S'HMDB61086'
p6250
sS'C01724'
p6251
S'HMDB01251'
p6252
sS'C16545'
p6253
S'HMDB60513'
p6254
sS'C16544'
p6255
S'HMDB60585'
p6256
sS'C16547'
p6257
S'HMDB60666'
p6258
sS'C16546'
p6259
S'HMDB13866'
p6260
sS'C16543'
p6261
S'HMDB60499'
p6262
sS'C16542'
p6263
S'HMDB60661'
p6264
sS'C01762'
p6265
S'HMDB00299'
p6266
sS'C01767'
p6267
S'HMDB35089'
p6268
sS'C01769'
p6269
g3710
sS'C00255'
p6270
S'HMDB00244'
p6271
sS'C04886'
p6272
S'HMDB01081'
p6273
sS'C14214'
p6274
S'HMDB33244'
p6275
sS'C14210'
p6276
S'HMDB05849'
p6277
sS'C01905'
p6278
S'HMDB33780'
p6279
sS'C01904'
p6280
g3221
sS'C01907'
p6281
S'HMDB14832'
p6282
sS'C06728'
p6283
S'HMDB40177'
p6284
sS'C05276'
p6285
S'HMDB03949'
p6286
sS'C03722'
p6287
S'HMDB00232'
p6288
sS'C02122'
p6289
S'HMDB10717'
p6290
sS'C01589'
p6291
S'HMDB01525'
p6292
sS'C01588'
p6293
S'HMDB01925'
p6294
sS'C00647'
p6295
S'HMDB01555'
p6296
sS'C01585'
p6297
S'HMDB00535'
p6298
sS'C01586'
p6299
S'HMDB00714'
p6300
sS'C08270'
p6301
S'HMDB12251'
p6302
sS'C01582'
p6303
g6154
sS'C13870'
p6304
S'HMDB31094'
p6305
sS'C01346'
p6306
S'HMDB01000'
p6307
sS'C01345'
p6308
S'HMDB03537'
p6309
sS'C01344'
p6310
S'HMDB03536'
p6311
sS'C01342'
p6312
S'HMDB41827'
p6313
sS'C01613'
p6314
S'HMDB03553'
p6315
sS'C10128'
p6316
S'HMDB30352'
p6317
sS'C13106'
p6318
S'HMDB14370'
p6319
sS'C07288'
p6320
S'HMDB30030'
p6321
sS'C05828'
p6322
S'HMDB02820'
p6323
sS'C05829'
p6324
S'HMDB15673'
p6325
sS'C08583'
p6326
S'HMDB03154'
p6327
sS'C19186'
p6328
S'HMDB33141'
p6329
sS'C05821'
p6330
S'HMDB32199'
p6331
sS'C19180'
p6332
S'HMDB29706'
p6333
sS'C02835'
p6334
S'HMDB02024'
p6335
sS'C05824'
p6336
S'HMDB00731'
p6337
sS'C12300'
p6338
S'HMDB32051'
p6339
sS'C18202'
p6340
S'HMDB12183'
p6341
sS'C11228'
p6342
S'HMDB15327'
p6343
sS'C00424'
p6344
S'HMDB03052'
p6345
sS'C16765'
p6346
S'HMDB41857'
p6347
sS'C06244'
p6348
S'HMDB31645'
p6349
sS'C00427'
p6350
S'HMDB01381'
p6351
sS'C06241'
p6352
S'HMDB04381'
p6353
sS'C16632'
p6354
S'HMDB60434'
p6355
sS'C00850'
p6356
g3505
sS'C07324'
p6357
S'HMDB01913'
p6358
sS'C16631'
p6359
S'HMDB60435'
p6360
sS'C16310'
p6361
S'HMDB31498'
p6362
sS'C11748'
p6363
S'HMDB14446'
p6364
sS'C05918'
p6365
S'HMDB35695'
p6366
sS'C02588'
p6367
S'HMDB03648'
p6368
sS'C02235'
p6369
S'HMDB02916'
p6370
sS'C02230'
p6371
S'HMDB01566'
p6372
sS'C00813'
p6373
S'HMDB41833'
p6374
sS'C03761'
p6375
S'HMDB00355'
p6376
sS'C03188'
p6377
g312
sS'C02909'
p6378
S'HMDB60303'
p6379
sS'C19298'
p6380
S'HMDB40464'
p6381
sS'C19569'
p6382
S'HMDB00992'
p6383
sS'C18587'
p6384
S'HMDB34106'
p6385
sS'C17554'
p6386
S'HMDB60380'
p6387
sS'C19562'
p6388
S'HMDB60420'
p6389
sS'C08582'
p6390
S'HMDB35317'
p6391
sS'C19561'
p6392
S'HMDB60419'
p6393
sS'C02183'
p6394
S'HMDB13675'
p6395
sS'C17821'
p6396
S'HMDB29872'
p6397
sS'C03500'
p6398
S'HMDB31216'
p6399
sS'C06677'
p6400
S'HMDB59933'
p6401
sS'C03508'
p6402
S'HMDB06454'
p6403
sS'C05275'
p6404
S'HMDB03948'
p6405
sS'C08322'
p6406
S'HMDB02000'
p6407
sS'C02059'
p6408
S'HMDB03555'
p6409
sS'C18902'
p6410
S'HMDB60489'
p6411
sS'C02052'
p6412
S'HMDB01296'
p6413
sS'C06758'
p6414
S'HMDB29638'
p6415
sS'C06752'
p6416
S'HMDB29571'
p6417
sS'C06755'
p6418
S'HMDB31331'
p6419
sS'C08323'
p6420
S'HMDB02368'
p6421
sS'C06757'
p6422
S'HMDB41609'
p6423
sS'C06756'
p6424
S'HMDB59924'
p6425
sS'C00979'
p6426
S'HMDB03011'
p6427
sS'C00978'
p6428
S'HMDB01238'
p6429
sS'C11415'
p6430
S'HMDB36080'
p6431
sS'C17601'
p6432
S'HMDB32330'
p6433
sS'C00971'
p6434
S'HMDB03454'
p6435
sS'C19368'
p6436
S'HMDB00599'
p6437
sS'C00974'
p6438
S'HMDB30847'
p6439
sS'C07752'
p6440
S'HMDB01915'
p6441
sS'C07753'
p6442
S'HMDB14453'
p6443
sS'C12679'
p6444
S'HMDB41837'
p6445
sS'C00408'
p6446
S'HMDB00716'
p6447
sS'C01838'
p6448
S'HMDB02384'
p6449
sS'C05921'
p6450
S'HMDB04220'
p6451
sS'C19160'
p6452
S'HMDB31332'
p6453
sS'C00507'
p6454
S'HMDB00849'
p6455
sS'C00402'
p6456
S'HMDB06483'
p6457
sS'C07758'
p6458
S'HMDB14580'
p6459
sS'C00400'
p6460
S'HMDB03352'
p6461
sS'C00407'
p6462
S'HMDB00172'
p6463
sS'C00404'
p6464
g1736
sS'C07194'
p6465
S'HMDB11754'
p6466
sS'C08356'
p6467
S'HMDB01266'
p6468
sS'C07196'
p6469
S'HMDB14566'
p6470
sS'C07190'
p6471
S'HMDB14901'
p6472
sS'C07192'
p6473
S'HMDB15474'
p6474
sS'C17488'
p6475
S'HMDB36766'
p6476
sS'C06115'
p6477
S'HMDB12325'
p6478
sS'C06114'
p6479
S'HMDB60477'
p6480
sS'C07198'
p6481
S'HMDB15655'
p6482
sS'C13802'
p6483
S'HMDB03034'
p6484
sS'C12695'
p6485
S'HMDB61149'
p6486
sS'C05448'
p6487
S'HMDB12456'
p6488
sS'C05449'
p6489
S'HMDB06896'
p6490
sS'C07572'
p6491
S'HMDB05038'
p6492
sS'C07570'
p6493
S'HMDB14514'
p6494
sS'C03878'
p6495
S'HMDB00803'
p6496
sS'C09213'
p6497
S'HMDB61115'
p6498
sS'C05442'
p6499
S'HMDB00937'
p6500
sS'C05443'
p6501
S'HMDB14315'
p6502
sS'C06213'
p6503
S'HMDB04370'
p6504
sS'C07515'
p6505
S'HMDB15290'
p6506
sS'C14855'
p6507
S'HMDB60391'
p6508
sS'C00576'
p6509
S'HMDB01252'
p6510
sS'C14857'
p6511
S'HMDB60333'
p6512
sS'C14856'
p6513
S'HMDB60423'
p6514
sS'C14851'
p6515
S'HMDB60091'
p6516
sS'C14850'
p6517
S'HMDB60439'
p6518
sS'C00571'
p6519
S'HMDB31404'
p6520
sS'C00570'
p6521
S'HMDB01564'
p6522
sS'C11526'
p6523
S'HMDB06229'
p6524
sS'C16975'
p6525
S'HMDB29867'
p6526
sS'C05465'
p6527
S'HMDB00951'
p6528
sS'C14859'
p6529
S'HMDB60452'
p6530
sS'C14858'
p6531
S'HMDB60357'
p6532
sS'C00579'
p6533
S'HMDB00985'
p6534
sS'C18166'
p6535
S'HMDB05056'
p6536
sS'C07370'
p6537
S'HMDB14773'
p6538
sS'C07451'
p6539
S'HMDB41938'
p6540
sS'C07372'
p6541
S'HMDB15166'
p6542
sS'C07373'
p6543
S'HMDB15537'
p6544
sS'C07375'
p6545
S'HMDB14859'
p6546
sS'C07378'
p6547
S'HMDB14531'
p6548
sS'C07379'
p6549
S'HMDB14564'
p6550
sS'C12214'
p6551
S'HMDB60436'
p6552
sS'C06800'
p6553
S'HMDB06552'
p6554
sS'C06803'
p6555
S'HMDB15324'
p6556
sS'C07405'
p6557
S'HMDB14915'
p6558
sS'C07402'
p6559
S'HMDB15299'
p6560
sS'C06804'
p6561
S'HMDB01859'
p6562
sS'C07400'
p6563
S'HMDB14871'
p6564
sS'C07401'
p6565
S'HMDB15169'
p6566
sS'C00357'
p6567
S'HMDB01062'
p6568
sS'C06808'
p6569
S'HMDB14691'
p6570
sS'C00355'
p6571
S'HMDB00181'
p6572
sS'C00353'
p6573
S'HMDB04486'
p6574
sS'C07408'
p6575
S'HMDB14488'
p6576
sS'C02166'
p6577
S'HMDB01198'
p6578
sS'C04666'
p6579
S'HMDB12208'
p6580
sS'C05598'
p6581
S'HMDB00821'
p6582
sS'C00750'
p6583
S'HMDB01256'
p6584
sS'C00757'
p6585
S'HMDB03409'
p6586
sS'C00756'
p6587
S'HMDB01183'
p6588
sS'C04063'
p6589
S'HMDB06235'
p6590
sS'C04062'
p6591
S'HMDB06234'
p6592
sS'C02162'
p6593
S'HMDB34312'
p6594
sS'C05590'
p6595
S'HMDB59634'
p6596
sS'C00758'
p6597
S'HMDB13679'
p6598
sS'C05596'
p6599
S'HMDB00735'
p6600
sS'C18018'
p6601
S'HMDB36079'
p6602
sS'C13309'
p6603
S'HMDB04649'
p6604
sS'C05595'
p6605
S'HMDB06061'
p6606
sS'C00990'
p6607
S'HMDB12176'
p6608
sS'C02161'
p6609
S'HMDB30483'
p6610
sS'C16618'
p6611
S'HMDB60418'
p6612
sS'C15531'
p6613
S'HMDB37319'
p6614
sS'C02267'
p6615
S'HMDB14692'
p6616
sS'C05625'
p6617
S'HMDB03249'
p6618
sS'C09069'
p6619
S'HMDB02121'
p6620
sS'C05623'
p6621
S'HMDB37362'
p6622
sS'C06935'
p6623
S'HMDB14578'
p6624
sS'C09060'
p6625
S'HMDB33930'
p6626
sS'C06931'
p6627
S'HMDB15060'
p6628
sS'C06930'
p6629
S'HMDB15307'
p6630
sS'C06932'
p6631
S'HMDB15114'
p6632
sS'C14131'
p6633
S'HMDB02209'
p6634
sS'C08821'
p6635
S'HMDB02374'
p6636
sS'C10129'
p6637
S'HMDB30353'
p6638
sS'C00198'
p6639
S'HMDB00150'
p6640
sS'C00197'
p6641
S'HMDB60180'
p6642
sS'C00196'
p6643
S'HMDB00397'
p6644
sS'C00193'
p6645
g3692
sS'C00192'
p6646
S'HMDB03338'
p6647
sS'C07321'
p6648
S'HMDB15296'
p6649
sS'C07999'
p6650
S'HMDB14752'
p6651
sS'C07995'
p6652
S'HMDB15469'
p6653
sS'C09665'
p6654
S'HMDB36066'
p6655
sS'C01110'
p6656
S'HMDB06272'
p6657
sS'C11271'
p6658
S'HMDB29600'
p6659
sS'C04477'
p6660
S'HMDB01187'
p6661
sS'C13800'
p6662
S'HMDB05049'
p6663
sS'C06394'
p6664
S'HMDB35084'
p6665
sS'C01119'
p6666
S'HMDB59664'
p6667
sS'C13809'
p6668
S'HMDB05083'
p6669
sS'C13808'
p6670
S'HMDB02400'
p6671
sS'C05130'
p6672
S'HMDB03905'
p6673
sS'C05135'
p6674
S'HMDB13253'
p6675
sS'C05139'
p6676
S'HMDB00352'
p6677
sS'C14687'
p6678
S'HMDB31213'
p6679
sS'C10343'
p6680
S'HMDB35214'
p6681
s.