(dp0
S'mmu:195046'
p1
VNlrp1a
p2
sS'mmu:16777'
p3
VLamb1
p4
sS'mmu:237625'
p5
VPla2g3
p6
sS'cpd:C15781'
p7
VPUBCHEM47205106
p8
sS'cpd:C15780'
p9
S'HMDB06848'
p10
sS'cpd:C15783'
p11
S'HMDB06852'
p12
sS'cpd:C15782'
p13
VPUBCHEM47205107
p14
sS'cpd:C00398'
p15
S'HMDB00303'
p16
sS'mmu:394252'
p17
VSerpinb3d
p18
sS'gl:G00038'
p19
S'glG00038'
p20
sS'gl:G00039'
p21
S'glG00039'
p22
sS'mmu:100043314'
p23
VTigit
p24
sS'gl:G00035'
p25
S'glG00035'
p26
sS'gl:G00036'
p27
S'glG00036'
p28
sS'gl:G00037'
p29
S'glG00037'
p30
sS'gl:G00031'
p31
S'glG00031'
p32
sS'gl:G00032'
p33
S'glG00032'
p34
sS'mmu:259016'
p35
VOlfr1048
p36
sS'mmu:16514'
p37
VKcnj11
p38
sS'mmu:259014'
p39
VOlfr1047
p40
sS'mmu:259012'
p41
VOlfr1052
p42
sS'mmu:259010'
p43
VOlfr393
p44
sS'mmu:259011'
p45
VOlfr389
p46
sS'mmu:723925'
p47
VMir106b
p48
sS'mmu:103964'
p49
VTry5
p50
sS'cpd:C03546'
p51
S'HMDB01313'
p52
sS'mmu:259018'
p53
VOlfr1049
p54
sS'mmu:259019'
p55
VOlfr1045
p56
sS'cpd:C03479'
p57
S'HMDB01562'
p58
sS'mmu:12505'
p59
VCd44
p60
sS'mmu:13852'
p61
VStx2
p62
sS'mmu:13850'
p63
VEphx2
p64
sS'mmu:28240'
p65
VTrpm2
p66
sS'cpd:C00268'
p67
S'HMDB02215'
p68
sS'cpd:C00269'
p69
VPUBCHEM3567
p70
sS'mmu:277935'
p71
VOlfr519
p72
sS'cpd:C15518'
p73
S'HMDB60136'
p74
sS'mmu:94216'
p75
VCol4a6
p76
sS'cpd:C00262'
p77
S'HMDB00157'
p78
sS'mmu:57249'
p79
VGabrq
p80
sS'cpd:C00264'
p81
VPUBCHEM3562
p82
sS'cpd:C00267'
p83
S'HMDB03345'
p84
sS'cpd:C00068'
p85
S'HMDB01372'
p86
sS'mmu:16177'
p87
VIl1r1
p88
sS'cpd:C00062'
p89
S'HMDB00517'
p90
sS'cpd:C00063'
p91
S'HMDB00082'
p92
sS'cpd:C20776'
p93
S'cpdC20776'
p94
sS'cpd:C00061'
p95
S'HMDB01520'
p96
sS'cpd:C00067'
p97
S'HMDB01426'
p98
sS'cpd:C00064'
p99
S'HMDB00641'
p100
sS'cpd:C00065'
p101
S'HMDB00187'
p102
sS'mmu:404311'
p103
VOlfr209
p104
sS'mmu:404310'
p105
VOlfr199
p106
sS'mmu:404313'
p107
VOlfr251
p108
sS'mmu:258702'
p109
VOlfr410
p110
sS'mmu:404315'
p111
VOlfr372
p112
sS'mmu:404314'
p113
VOlfr257
p114
sS'mmu:404317'
p115
VOlfr592
p116
sS'mmu:404316'
p117
VOlfr403
p118
sS'mmu:404319'
p119
VOlfr750
p120
sS'mmu:404318'
p121
VOlfr681
p122
sS'cpd:C02373'
p123
S'HMDB01318'
p124
sS'mmu:259126'
p125
VOlfr623
p126
sS'mmu:259124'
p127
VOlfr638
p128
sS'mmu:259125'
p129
VOlfr644
p130
sS'mmu:16199'
p131
VIl9r
p132
sS'cpd:C05726'
p133
VPUBCHEM8029
p134
sS'cpd:C03512'
p135
VPUBCHEM6322
p136
sS'cpd:C03511'
p137
VPUBCHEM6321
p138
sS'cpd:C05729'
p139
VPUBCHEM8031
p140
sS'mmu:231396'
p141
VUgt2b36
p142
sS'cpd:C02017'
p143
VPUBCHEM5112
p144
sS'mmu:258389'
p145
VOlfr1278
p146
sS'mmu:258388'
p147
VOlfr1279
p148
sS'mmu:258838'
p149
VOlfr617
p150
sS'mmu:258385'
p151
VOlfr1323
p152
sS'mmu:258836'
p153
VOlfr272
p154
sS'mmu:258387'
p155
VOlfr720
p156
sS'mmu:258386'
p157
VOlfr1058
p158
sS'mmu:258833'
p159
VOlfr1132
p160
sS'mmu:258380'
p161
VOlfr461
p162
sS'mmu:258383'
p163
VOlfr1347
p164
sS'mmu:258382'
p165
VOlfr208
p166
sS'mmu:245000'
p167
VAtr
p168
sS'mmu:258019'
p169
VOlfr212
p170
sS'mmu:100910'
p171
VChpf2
p172
sS'mmu:258016'
p173
VOlfr453
p174
sS'cpd:C16025'
p175
VPUBCHEM47205336
p176
sS'cpd:C06037'
p177
VPUBCHEM8309
p178
sS'cpd:C06615'
p179
S'HMDB60457'
p180
sS'cpd:C16022'
p181
VPUBCHEM47205333
p182
sS'cpd:C01284'
p183
S'HMDB03529'
p184
sS'mmu:69836'
p185
VPla2g12b
p186
sS'cpd:C16255'
p187
VPUBCHEM47205563
p188
sS'cpd:C16845'
p189
S'HMDB02179'
p190
sS'cpd:C16844'
p191
VPUBCHEM96023368
p192
sS'mmu:258635'
p193
VOlfr1140
p194
sS'mmu:258634'
p195
VOlfr1164
p196
sS'mmu:258636'
p197
VOlfr1155
p198
sS'mmu:258631'
p199
VOlfr1151
p200
sS'mmu:258630'
p201
VOlfr1141
p202
sS'mmu:258633'
p203
VOlfr1153
p204
sS'mmu:258632'
p205
VOlfr1138
p206
sS'mmu:80797'
p207
VClca3a2
p208
sS'mmu:258639'
p209
VOlfr1158
p210
sS'mmu:258638'
p211
VOlfr1163
p212
sS'cpd:C05437'
p213
S'HMDB06271'
p214
sS'mmu:258720'
p215
VOlfr516
p216
sS'mmu:94045'
p217
VP2rx5
p218
sS'mmu:383548'
p219
VSerpinb3b
p220
sS'cpd:C02700'
p221
S'HMDB60485'
p222
sS'cpd:C02702'
p223
VPUBCHEM5665
p224
sS'cpd:C05439'
p225
S'HMDB06842'
p226
sS'cpd:C16331'
p227
VPUBCHEM47205639
p228
sS'cpd:C16330'
p229
VPUBCHEM47205638
p230
sS'cpd:C16332'
p231
VPUBCHEM47205640
p232
sS'cpd:C16335'
p233
VPUBCHEM47205643
p234
sS'cpd:C16334'
p235
VPUBCHEM47205642
p236
sS'cpd:C06148'
p237
S'HMDB06823'
p238
sS'cpd:C16339'
p239
VPUBCHEM47205647
p240
sS'cpd:C16338'
p241
VPUBCHEM47205646
p242
sS'cpd:C06755'
p243
S'HMDB31331'
p244
sS'mmu:258468'
p245
VOlfr1254
p246
sS'mmu:546726'
p247
VCyp26c1
p248
sS'mmu:258469'
p249
VOlfr90
p250
sS'mmu:331374'
p251
VDgkk
p252
sS'mmu:258529'
p253
VOlfr313
p254
sS'mmu:258528'
p255
VOlfr1370
p256
sS'mmu:258521'
p257
VOlfr860
p258
sS'mmu:258520'
p259
VOlfr849
p260
sS'mmu:19417'
p261
VRasgrf1
p262
sS'mmu:258522'
p263
VOlfr1183
p264
sS'mmu:258525'
p265
VOlfr1170
p266
sS'mmu:258524'
p267
VOlfr1168
p268
sS'mmu:258527'
p269
VOlfr1368
p270
sS'mmu:258526'
p271
VOlfr1367
p272
sS'cpd:C04895'
p273
S'HMDB00980'
p274
sS'mmu:170716'
p275
VCyp4f13
p276
sS'mmu:170718'
p277
VIdh3b
p278
sS'cpd:C05546'
p279
VPUBCHEM7882
p280
sS'cpd:C05544'
p281
VPUBCHEM7880
p282
sS'cpd:C05545'
p283
VPUBCHEM7881
p284
sS'mmu:20846'
p285
VStat1
p286
sS'mmu:20847'
p287
VStat2
p288
sS'gl:G12336'
p289
S'glG12336'
p290
sS'mmu:15194'
p291
VHtt
p292
sS'mmu:74370'
p293
VRptor
p294
sS'cpd:C05103'
p295
VPUBCHEM7531
p296
sS'gl:G13064'
p297
S'glG13064'
p298
sS'gl:G13063'
p299
S'glG13063'
p300
sS'cpd:C05499'
p301
VPUBCHEM7852
p302
sS'mmu:16404'
p303
VItga7
p304
sS'cpd:C06205'
p305
S'HMDB60335'
p306
sS'mmu:21423'
p307
VTcf3
p308
sS'mmu:67543'
p309
VPabpc6
p310
sS'cpd:C03862'
p311
VPUBCHEM6598
p312
sS'cpd:C05108'
p313
VPUBCHEM7534
p314
sS'mmu:72303'
p315
VCyp2c65
p316
sS'mmu:207728'
p317
VPde2a
p318
sS'cpd:C00864'
p319
VPUBCHEM4121
p320
sS'mmu:258155'
p321
VOlfr1425
p322
sS'mmu:14918'
p323
VGucy2d
p324
sS'mmu:258156'
p325
VOlfr605
p326
sS'cpd:C01120'
p327
S'HMDB01383'
p328
sS'cpd:C05139'
p329
S'HMDB00352'
p330
sS'cpd:C05138'
p331
VPUBCHEM7557
p332
sS'cpd:C01124'
p333
S'HMDB00319'
p334
sS'mmu:242443'
p335
VGrin3a
p336
sS'cpd:C01127'
p337
S'HMDB02070'
p338
sS'cpd:C05130'
p339
S'HMDB03905'
p340
sS'cpd:C02593'
p341
S'HMDB01521'
p342
sS'mmu:258151'
p343
VOlfr1505
p344
sS'mmu:216783'
p345
VOlfr320
p346
sS'mmu:14268'
p347
VFn1
p348
sS'cpd:C00460'
p349
S'HMDB01191'
p350
sS'cpd:C00461'
p351
VPUBCHEM3745
p352
sS'mmu:14265'
p353
VFmr1
p354
sS'cpd:C03892'
p355
VPUBCHEM6624
p356
sS'cpd:C20171'
p357
VPUBCHEM163311914
p358
sS'cpd:C00468'
p359
S'HMDB00145'
p360
sS'cpd:C00469'
p361
S'HMDB00108'
p362
sS'mmu:19109'
p363
VPrl
p364
sS'mmu:258665'
p365
VOlfr815
p366
sS'mmu:170936'
p367
VZfp369
p368
sS'mmu:16519'
p369
VKcnj3
p370
sS'mmu:14865'
p371
VGstm4
p372
sS'cpd:C05923'
p373
S'HMDB06821'
p374
sS'cpd:C00721'
p375
VPUBCHEM3987
p376
sS'cpd:C02909'
p377
S'HMDB60303'
p378
sS'mmu:56703'
p379
VPigo
p380
sS'mmu:13666'
p381
VEif2ak3
p382
sS'gl:G01391'
p383
S'glG01391'
p384
sS'mmu:22238'
p385
VUgt2b5
p386
sS'cpd:C03287'
p387
S'HMDB01228'
p388
sS'mmu:67373'
p389
V2210010C04Rik
p390
sS'cpd:C03284'
p391
S'HMDB02166'
p392
sS'cpd:C05951'
p393
VPUBCHEM8235
p394
sS'cpd:C05952'
p395
VPUBCHEM8236
p396
sS'mmu:13118'
p397
VCyp4a12b
p398
sS'cpd:C03289'
p399
VPUBCHEM6146
p400
sS'mmu:53627'
p401
VPorcn
p402
sS'cpd:C14791'
p403
S'HMDB60300'
p404
sS'cpd:C00096'
p405
S'HMDB01163'
p406
sS'cpd:C00095'
p407
VPUBCHEM3395
p408
sS'cpd:C00094'
p409
S'HMDB34829'
p410
sS'cpd:C00093'
p411
S'HMDB00126'
p412
sS'cpd:C00092'
p413
S'HMDB01401'
p414
sS'cpd:C00091'
p415
S'HMDB01022'
p416
sS'cpd:C00099'
p417
S'HMDB00056'
p418
sS'cpd:C01708'
p419
VPUBCHEM4846
p420
sS'mmu:77777'
p421
VUlbp1
p422
sS'cpd:C00655'
p423
S'HMDB01554'
p424
sS'cpd:C14556'
p425
VPUBCHEM17395556
p426
sS'cpd:C07600'
p427
S'HMDB33963'
p428
sS'cpd:C00658'
p429
VPUBCHEM3927
p430
sS'cpd:C04554'
p431
VPUBCHEM7159
p432
sS'cpd:C04555'
p433
S'HMDB01032'
p434
sS'mmu:18346'
p435
VOlfr47
p436
sS'mmu:18347'
p437
VOlfr48
p438
sS'mmu:18344'
p439
VOlfr45
p440
sS'mmu:18345'
p441
VOlfr46
p442
sS'mmu:18343'
p443
VOlfr44
p444
sS'mmu:18341'
p445
VOlfr263
p446
sS'cpd:C04392'
p447
S'HMDB03834'
p448
sS'gl:G09660'
p449
S'glG09660'
p450
sS'mmu:240752'
p451
VPik3c2b
p452
sS'cpd:C02249'
p453
VPUBCHEM5312
p454
sS'mmu:93806'
p455
VSerpinb9g
p456
sS'cpd:C00388'
p457
S'HMDB60263'
p458
sS'mmu:218693'
p459
VPaip1
p460
sS'cpd:C00381'
p461
VPUBCHEM3671
p462
sS'cpd:C00387'
p463
S'HMDB00133'
p464
sS'cpd:C00386'
p465
S'HMDB00033'
p466
sS'cpd:C00385'
p467
S'HMDB00292'
p468
sS'cpd:C16551'
p469
S'HMDB60432'
p470
sS'mmu:225849'
p471
VPpp2r5b
p472
sS'cpd:C01419'
p473
S'HMDB00078'
p474
sS'mmu:67579'
p475
VCpeb4
p476
sS'mmu:239319'
p477
VCard6
p478
sS'mmu:58179'
p479
VKlrc3
p480
sS'mmu:259004'
p481
VOlfr175-ps1
p482
sS'cpd:C07151'
p483
S'HMDB01921'
p484
sS'mmu:723930'
p485
VMir335
p486
sS'mmu:259000'
p487
VOlfr195
p488
sS'mmu:259003'
p489
VOlfr172
p490
sS'mmu:259002'
p491
VOlfr173
p492
sS'cpd:C05606'
p493
VPUBCHEM7929
p494
sS'mmu:259009'
p495
VOlfr394
p496
sS'mmu:259008'
p497
VOlfr392
p498
sS'cpd:C05272'
p499
VPUBCHEM7659
p500
sS'mmu:84505'
p501
VSetdb1
p502
sS'mmu:12531'
p503
VCdc25b
p504
sS'mmu:13846'
p505
VEphb4
p506
sS'mmu:13840'
p507
VEpha6
p508
sS'mmu:13841'
p509
VEpha7
p510
sS'cpd:C03460'
p511
S'HMDB01011'
p512
sS'cpd:C00279'
p513
S'HMDB01321'
p514
sS'cpd:C00275'
p515
VPUBCHEM3572
p516
sS'mmu:11548'
p517
VAdra1b
p518
sS'cpd:C00272'
p519
S'HMDB59658'
p520
sS'cpd:C00270'
p521
VPUBCHEM3568
p522
sS'cpd:C00079'
p523
S'HMDB00159'
p524
sS'cpd:C00078'
p525
S'HMDB00929'
p526
sS'mmu:723848'
p527
VMir34a
p528
sS'cpd:C00071'
p529
VPUBCHEM3371
p530
sS'mmu:17342'
p531
VMitf
p532
sS'cpd:C00073'
p533
S'HMDB00696'
p534
sS'cpd:C00072'
p535
S'HMDB00044'
p536
sS'cpd:C00075'
p537
S'HMDB00285'
p538
sS'mmu:17346'
p539
VMknk1
p540
sS'cpd:C00077'
p541
S'HMDB00214'
p542
sS'mmu:218210'
p543
VNup153
p544
sS'mmu:404324'
p545
VOlfr1051
p546
sS'mmu:404325'
p547
VOlfr1057
p548
sS'mmu:258736'
p549
VOlfr1497
p550
sS'mmu:258737'
p551
VOlfr1316
p552
sS'mmu:16348'
p553
VInvs
p554
sS'mmu:404321'
p555
VOlfr776
p556
sS'mmu:404322'
p557
VOlfr924
p558
sS'mmu:404323'
p559
VOlfr1040
p560
sS'mmu:404328'
p561
VOlfr1118
p562
sS'mmu:258739'
p563
VOlfr1362
p564
sS'mmu:213498'
p565
VArhgef11
p566
sS'cpd:C20775'
p567
S'cpdC20775'
p568
sS'mmu:16182'
p569
VIl18r1
p570
sS'mmu:16180'
p571
VIl1rap
p572
sS'mmu:16186'
p573
VIl2rg
p574
sS'mmu:16179'
p575
VIrak1
p576
sS'cpd:C00751'
p577
VPUBCHEM4013
p578
sS'mmu:333050'
p579
VKsr2
p580
sS'cpd:C00752'
p581
VPUBCHEM4014
p582
sS'cpd:C16236'
p583
VPUBCHEM47205544
p584
sS'cpd:C16237'
p585
VPUBCHEM47205545
p586
sS'cpd:C16238'
p587
S'HMDB59635'
p588
sS'cpd:C16239'
p589
VPUBCHEM47205547
p590
sS'cpd:C05302'
p591
S'HMDB00405'
p592
sS'mmu:258020'
p593
VOlfr213
p594
sS'mmu:258022'
p595
VOlfr1318
p596
sS'mmu:258023'
p597
VOlfr1306
p598
sS'mmu:258025'
p599
VOlfr1211
p600
sS'mmu:258027'
p601
VOlfr1385
p602
sS'mmu:258028'
p603
VOlfr901
p604
sS'mmu:258608'
p605
VOlfr986
p606
sS'mmu:258609'
p607
VOlfr305
p608
sS'mmu:258358'
p609
VOlfr557
p610
sS'mmu:258359'
p611
VOlfr1312
p612
sS'mmu:23871'
p613
VEts1
p614
sS'mmu:258600'
p615
VOlfr270
p616
sS'mmu:258601'
p617
VOlfr984
p618
sS'mmu:258350'
p619
VOlfr706
p620
sS'mmu:258351'
p621
VOlfr633
p622
sS'mmu:258356'
p623
VOlfr564
p624
sS'mmu:258357'
p625
VOlfr574
p626
sS'mmu:258354'
p627
VOlfr168
p628
sS'mmu:258355'
p629
VOlfr677
p630
sS'mmu:404312'
p631
VOlfr250
p632
sS'mmu:436522'
p633
VTry10
p634
sS'mmu:258704'
p635
VOlfr411
p636
sS'mmu:258820'
p637
VOlfr1184
p638
sS'cpd:C02737'
p639
VPUBCHEM5698
p640
sS'mmu:384703'
p641
VOlfr670
p642
sS'mmu:20272'
p643
VScn7a
p644
sS'mmu:258284'
p645
VOlfr114
p646
sS'mmu:258285'
p647
VOlfr122
p648
sS'mmu:258286'
p649
VOlfr113
p650
sS'mmu:258287'
p651
VOlfr125
p652
sS'mmu:258280'
p653
VOlfr1366
p654
sS'mmu:258281'
p655
VOlfr780
p656
sS'mmu:258282'
p657
VOlfr801
p658
sS'mmu:258708'
p659
VOlfr1342
p660
sS'mmu:258288'
p661
VOlfr1484
p662
sS'mmu:258289'
p663
VOlfr1324
p664
sS'cpd:C13662'
p665
VPUBCHEM854003
p666
sS'cpd:C16168'
p667
VPUBCHEM47205478
p668
sS'cpd:C16169'
p669
VPUBCHEM47205479
p670
sS'cpd:C16165'
p671
VPUBCHEM47205475
p672
sS'cpd:C16162'
p673
VPUBCHEM47205472
p674
sS'cpd:C16163'
p675
VPUBCHEM47205473
p676
sS'mmu:258518'
p677
VOlfr847
p678
sS'mmu:258519'
p679
VOlfr859
p680
sS'cpd:C00899'
p681
S'HMDB06216'
p682
sS'mmu:277562'
p683
VOlfr1286
p684
sS'mmu:258515'
p685
VOlfr854
p686
sS'mmu:258516'
p687
VOlfr850
p688
sS'cpd:C00894'
p689
S'HMDB02307'
p690
sS'mmu:258511'
p691
VOlfr523
p692
sS'mmu:258512'
p693
VOlfr530
p694
sS'mmu:258513'
p695
VOlfr536
p696
sS'mmu:170722'
p697
VNxf7
p698
sS'mmu:110074'
p699
VDut
p700
sS'cpd:C05552'
p701
VPUBCHEM7886
p702
sS'mmu:68134'
p703
VUpf3b
p704
sS'mmu:20301'
p705
VCcl27a
p706
sS'mmu:21787'
p707
VTfg
p708
sS'cpd:C16010'
p709
VPUBCHEM47205321
p710
sS'cpd:C16012'
p711
VPUBCHEM47205323
p712
sS'cpd:C16013'
p713
VPUBCHEM47205324
p714
sS'cpd:C16543'
p715
S'HMDB60499'
p716
sS'mmu:258696'
p717
VOlfr1448
p718
sS'gl:G13073'
p719
S'glG13073'
p720
sS'gl:G13074'
p721
S'glG13074'
p722
sS'mmu:751527'
p723
VMir19b-1
p724
sS'mmu:70686'
p725
VDusp16
p726
sS'mmu:15288'
p727
VHmbs
p728
sS'mmu:100066'
p729
VCyp2j11
p730
sS'cpd:C02946'
p731
S'HMDB60265'
p732
sS'mmu:105651'
p733
VPpp1r3e
p734
sS'cpd:C01252'
p735
S'HMDB00978'
p736
sS'cpd:C02320'
p737
VPUBCHEM5373
p738
sS'mmu:21432'
p739
VTcl1
p740
sS'mmu:15051'
p741
VH2-T9
p742
sS'cpd:C03819'
p743
VPUBCHEM6563
p744
sS'gl:G00154'
p745
S'glG00154'
p746
sS'mmu:73532'
p747
V1700080E11Rik
p748
sS'mmu:15275'
p749
VHk1
p750
sS'cpd:C04438'
p751
VPUBCHEM7069
p752
sS'cpd:C01137'
p753
S'HMDB00988'
p754
sS'cpd:C01134'
p755
VPUBCHEM4365
p756
sS'gl:G00018'
p757
S'glG00018'
p758
sS'cpd:C05147'
p759
S'HMDB59659'
p760
sS'cpd:C05145'
p761
S'HMDB03911'
p762
sS'mmu:66763'
p763
V4933425L06Rik
p764
sS'cpd:C05141'
p765
VPUBCHEM7560
p766
sS'cpd:C00475'
p767
S'HMDB00089'
p768
sS'mmu:52118'
p769
VPvr
p770
sS'mmu:56174'
p771
VNagk
p772
sS'cpd:C00473'
p773
S'HMDB00305'
p774
sS'cpd:C00472'
p775
S'HMDB03364'
p776
sS'cpd:C05381'
p777
S'HMDB06744'
p778
sS'cpd:C05382'
p779
VPUBCHEM7756
p780
sS'mmu:19335'
p781
VRab23
p782
sS'mmu:258837'
p783
VOlfr545
p784
sS'mmu:258384'
p785
VOlfr1350
p786
sS'mmu:546989'
p787
VOlfr607
p788
sS'mmu:258835'
p789
VOlfr1130
p790
sS'cpd:C01753'
p791
S'HMDB00852'
p792
sS'mmu:258834'
p793
VOlfr1126
p794
sS'mmu:14013'
p795
VMecom
p796
sS'mmu:14011'
p797
VEtv6
p798
sS'mmu:258381'
p799
VOlfr460
p800
sS'mmu:258832'
p801
VOlfr109
p802
sS'cpd:C11132'
p803
VPUBCHEM13314
p804
sS'cpd:C11133'
p805
S'HMDB04483'
p806
sS'cpd:C00712'
p807
S'HMDB00207'
p808
sS'cpd:C11131'
p809
S'HMDB06765'
p810
sS'cpd:C11136'
p811
S'HMDB04484'
p812
sS'mmu:258831'
p813
VOlfr101
p814
sS'cpd:C11134'
p815
S'HMDB03193'
p816
sS'cpd:C11135'
p817
S'HMDB02829'
p818
sS'cpd:C11684'
p819
VPUBCHEM13849
p820
sS'cpd:C00719'
p821
S'HMDB00043'
p822
sS'mmu:258830'
p823
VOlfr103
p824
sS'cpd:C14762'
p825
S'HMDB04667'
p826
sS'mmu:67967'
p827
VPold3
p828
sS'mmu:18115'
p829
VNnt
p830
sS'cpd:C14099'
p831
S'HMDB60349'
p832
sS'mmu:387133'
p833
VMir9-1
p834
sS'cpd:C14090'
p835
S'HMDB60325'
p836
sS'cpd:C00101'
p837
VPUBCHEM3401
p838
sS'gl:G00526'
p839
S'glG00526'
p840
sS'gl:G02632'
p841
S'glG02632'
p842
sS'mmu:234730'
p843
VFuk
p844
sS'mmu:211323'
p845
VNrg1
p846
sS'gl:G00089'
p847
S'glG00089'
p848
sS'cpd:C20970'
p849
S'cpdC20970'
p850
sS'cpd:C00104'
p851
VPUBCHEM3404
p852
sS'mmu:394430'
p853
VUgt1a10
p854
sS'cpd:C00665'
p855
S'HMDB01047'
p856
sS'mmu:394433'
p857
VUgt1a5
p858
sS'cpd:C04549'
p859
VPUBCHEM7155
p860
sS'mmu:394435'
p861
VUgt1a6b
p862
sS'mmu:18370'
p863
VOlfr69
p864
sS'cpd:C00668'
p865
VPUBCHEM3937
p866
sS'cpd:C00669'
p867
S'HMDB01049'
p868
sS'mmu:18578'
p869
VPde4b
p870
sS'mmu:258938'
p871
VOlfr1417
p872
sS'gl:G00084'
p873
S'glG00084'
p874
sS'mmu:18573'
p875
VPde1a
p876
sS'mmu:18574'
p877
VPde1b
p878
sS'mmu:18975'
p879
VPolg
p880
sS'cpd:C16125'
p881
VPUBCHEM47205435
p882
sS'mmu:319478'
p883
VCxxc4
p884
sS'cpd:C16021'
p885
VPUBCHEM47205332
p886
sS'mmu:234889'
p887
VGucy1a2
p888
sS'cpd:C07490'
p889
S'HMDB41796'
p890
sS'cpd:C21012'
p891
S'cpdC21012'
p892
sS'cpd:C20372'
p893
VPUBCHEM163312110
p894
sS'cpd:C20375'
p895
VPUBCHEM163312113
p896
sS'cpd:C20376'
p897
VPUBCHEM163312114
p898
sS'cpd:C03692'
p899
VPUBCHEM6466
p900
sS'mmu:17179'
p901
VMatk
p902
sS'cpd:C01180'
p903
S'HMDB01553'
p904
sS'cpd:C05965'
p905
S'HMDB04243'
p906
sS'cpd:C05966'
p907
S'HMDB04244'
p908
sS'cpd:C04619'
p909
VPUBCHEM7209
p910
sS'cpd:C04618'
p911
VPUBCHEM7208
p912
sS'mmu:11611'
p913
VAgxt
p914
sS'cpd:C00836'
p915
S'HMDB00269'
p916
sS'cpd:C05634'
p917
S'HMDB04073'
p918
sS'cpd:C05635'
p919
S'HMDB00763'
p920
sS'cpd:C05636'
p921
S'HMDB60281'
p922
sS'cpd:C05637'
p923
S'HMDB60289'
p924
sS'cpd:C05638'
p925
S'HMDB04076'
p926
sS'cpd:C05639'
p927
S'HMDB04077'
p928
sS'mmu:54195'
p929
VGucy1b3
p930
sS'mmu:67031'
p931
VUpf3a
p932
sS'mmu:723949'
p933
VMir16-2
p934
sS'cpd:C03492'
p935
VPUBCHEM6304
p936
sS'mmu:387248'
p937
VMirlet7e
p938
sS'mmu:193053'
p939
VOlfr384
p940
sS'cpd:C01693'
p941
VPUBCHEM4834
p942
sS'mmu:18805'
p943
VPld1
p944
sS'mmu:18806'
p945
VPld2
p946
sS'cpd:C00280'
p947
S'HMDB00053'
p948
sS'cpd:C06548'
p949
S'HMDB31305'
p950
sS'cpd:C00286'
p951
S'HMDB01440'
p952
sS'cpd:C00288'
p953
S'HMDB00595'
p954
sS'mmu:19345'
p955
VRab5c
p956
sS'cpd:C00048'
p957
S'HMDB00119'
p958
sS'cpd:C00049'
p959
S'HMDB00191'
p960
sS'cpd:C00044'
p961
S'HMDB01273'
p962
sS'cpd:C00046'
p963
VPUBCHEM3348
p964
sS'cpd:C00047'
p965
S'HMDB00182'
p966
sS'cpd:C00040'
p967
VPUBCHEM3342
p968
sS'cpd:C00041'
p969
S'HMDB00161'
p970
sS'cpd:C00042'
p971
S'HMDB00254'
p972
sS'cpd:C00043'
p973
S'HMDB00290'
p974
sS'mmu:17259'
p975
VMef2b
p976
sS'mmu:259108'
p977
VOlfr550
p978
sS'mmu:259109'
p979
VOlfr978
p980
sS'mmu:16409'
p981
VItgam
p982
sS'mmu:16408'
p983
VItgal
p984
sS'mmu:259104'
p985
VOlfr613
p986
sS'mmu:259105'
p987
VOlfr549
p988
sS'mmu:259106'
p989
VOlfr552
p990
sS'mmu:259107'
p991
VOlfr555
p992
sS'mmu:259100'
p993
VOlfr666
p994
sS'mmu:259102'
p995
VOlfr630
p996
sS'mmu:259103'
p997
VOlfr616
p998
sS'mmu:20469'
p999
VSipa1
p1000
sS'cpd:C05703'
p1001
S'HMDB60488'
p1002
sS'mmu:258103'
p1003
VOlfr1152
p1004
sS'mmu:258698'
p1005
VOlfr1447
p1006
sS'cpd:C16221'
p1007
VPUBCHEM47205529
p1008
sS'cpd:C16220'
p1009
VPUBCHEM47205528
p1010
sS'mmu:259038'
p1011
VOlfr283
p1012
sS'mmu:259039'
p1013
VOlfr1413
p1014
sS'mmu:100316783'
p1015
VMir1b
p1016
sS'mmu:259030'
p1017
VOlfr1124
p1018
sS'mmu:259031'
p1019
VOlfr1120
p1020
sS'mmu:259032'
p1021
VOlfr1134
p1022
sS'mmu:259033'
p1023
VOlfr1122
p1024
sS'mmu:259034'
p1025
VOlfr705
p1026
sS'mmu:259035'
p1027
VOlfr714
p1028
sS'mmu:259036'
p1029
VOlfr713
p1030
sS'mmu:259037'
p1031
VOlfr711
p1032
sS'cpd:C06055'
p1033
S'HMDB06802'
p1034
sS'mmu:258348'
p1035
VOlfr1133
p1036
sS'mmu:11549'
p1037
VAdra1a
p1038
sS'cpd:C02210'
p1039
VPUBCHEM5278
p1040
sS'mmu:258618'
p1041
VOlfr355
p1042
sS'mmu:258617'
p1043
VOlfr356
p1044
sS'mmu:258616'
p1045
VOlfr357
p1046
sS'mmu:258343'
p1047
VOlfr397
p1048
sS'mmu:258342'
p1049
VOlfr1491
p1050
sS'mmu:258345'
p1051
VOlfr1121
p1052
sS'mmu:258612'
p1053
VOlfr303
p1054
sS'mmu:258611'
p1055
VOlfr297
p1056
sS'mmu:258610'
p1057
VOlfr307
p1058
sS'mmu:619326'
p1059
V9130409I23Rik
p1060
sS'mmu:170648'
p1061
VOlfr138
p1062
sS'cpd:C02723'
p1063
S'HMDB60258'
p1064
sS'mmu:93728'
p1065
VPabpc5
p1066
sS'mmu:258298'
p1067
VOlfr1475
p1068
sS'mmu:258293'
p1069
VOlfr437
p1070
sS'mmu:258292'
p1071
VOlfr446
p1072
sS'mmu:258291'
p1073
VOlfr1167
p1074
sS'mmu:20265'
p1075
VScn1a
p1076
sS'mmu:258297'
p1077
VOlfr827
p1078
sS'mmu:258296'
p1079
VOlfr745
p1080
sS'mmu:258295'
p1081
VOlfr746
p1082
sS'mmu:258294'
p1083
VOlfr1115
p1084
sS'cpd:C06613'
p1085
S'HMDB60516'
p1086
sS'cpd:C06612'
p1087
S'HMDB60456'
p1088
sS'mmu:404339'
p1089
VOlfr1480
p1090
sS'mmu:385643'
p1091
VKng2
p1092
sS'cpd:C06614'
p1093
S'HMDB60515'
p1094
sS'mmu:258723'
p1095
VOlfr781
p1096
sS'mmu:258722'
p1097
VOlfr611
p1098
sS'mmu:258721'
p1099
VOlfr514
p1100
sS'mmu:404330'
p1101
VOlfr1198
p1102
sS'mmu:404337'
p1103
VOlfr1383
p1104
sS'mmu:404336'
p1105
VOlfr1380
p1106
sS'mmu:404335'
p1107
VOlfr1535
p1108
sS'mmu:258724'
p1109
VOlfr784
p1110
sS'cpd:C16173'
p1111
VPUBCHEM47205483
p1112
sS'cpd:C16172'
p1113
VPUBCHEM47205482
p1114
sS'mmu:57349'
p1115
VPpbp
p1116
sS'mmu:258503'
p1117
VOlfr98
p1118
sS'mmu:258502'
p1119
VOlfr279
p1120
sS'mmu:258501'
p1121
VOlfr959
p1122
sS'mmu:258500'
p1123
VOlfr944
p1124
sS'mmu:258507'
p1125
VOlfr96
p1126
sS'mmu:258506'
p1127
VOlfr95
p1128
sS'mmu:258505'
p1129
VOlfr97
p1130
sS'mmu:258504'
p1131
VOlfr107
p1132
sS'mmu:170732'
p1133
VTrhr2
p1134
sS'mmu:258508'
p1135
VOlfr99
p1136
sS'mmu:353204'
p1137
VAldoart1
p1138
sS'cpd:C03715'
p1139
VPUBCHEM6481
p1140
sS'mmu:117004'
p1141
VOlfr73
p1142
sS'mmu:117005'
p1143
VOlfr74
p1144
sS'mmu:20860'
p1145
VSult1e1
p1146
sS'mmu:20315'
p1147
VCxcl12
p1148
sS'cpd:C16005'
p1149
VPUBCHEM47205316
p1150
sS'cpd:C16004'
p1151
VPUBCHEM47205315
p1152
sS'cpd:C16003'
p1153
VPUBCHEM47205314
p1154
sS'mmu:406175'
p1155
VOlfr242
p1156
sS'mmu:546896'
p1157
VOlfr455
p1158
sS'mmu:14806'
p1159
VGrik2
p1160
sS'cpd:C16336'
p1161
VPUBCHEM47205644
p1162
sS'mmu:258842'
p1163
VOlfr1098
p1164
sS'mmu:258843'
p1165
VOlfr1087
p1166
sS'mmu:213119'
p1167
VItga10
p1168
sS'mmu:15285'
p1169
VMnx1
p1170
sS'cpd:C02530'
p1171
VPUBCHEM5537
p1172
sS'mmu:258841'
p1173
VOlfr1107
p1174
sS'cpd:C02535'
p1175
S'HMDB33212'
p1176
sS'cpd:C01241'
p1177
VPUBCHEM4462
p1178
sS'mmu:258846'
p1179
VOlfr1157
p1180
sS'cpd:C01243'
p1181
S'HMDB01143'
p1182
sS'cpd:C01242'
p1183
VPUBCHEM4463
p1184
sS'cpd:C01245'
p1185
S'HMDB01498'
p1186
sS'cpd:C01246'
p1187
VPUBCHEM4467
p1188
sS'mmu:15042'
p1189
VH2-T24
p1190
sS'mmu:15043'
p1191
VH2-T3
p1192
sS'mmu:110115'
p1193
VCyp11b1
p1194
sS'mmu:258844'
p1195
VOlfr1090
p1196
sS'mmu:74519'
p1197
VCyp2j9
p1198
sS'mmu:387139'
p1199
VMir20a
p1200
sS'cpd:C11695'
p1201
S'HMDB04080'
p1202
sS'mmu:259049'
p1203
VOlfr618
p1204
sS'mmu:258701'
p1205
VOlfr401
p1206
sS'mmu:387135'
p1207
VMir18
p1208
sS'mmu:387134'
p1209
VMir16-1
p1210
sS'mmu:387136'
p1211
VMir1a-1
p1212
sS'cpd:C00448'
p1213
S'HMDB00961'
p1214
sS'cpd:C00449'
p1215
S'HMDB00279'
p1216
sS'cpd:C00440'
p1217
S'HMDB01396'
p1218
sS'cpd:C00913'
p1219
S'HMDB11600'
p1220
sS'cpd:C00445'
p1221
VPUBCHEM3733
p1222
sS'cpd:C00446'
p1223
S'HMDB00645'
p1224
sS'cpd:C00447'
p1225
S'HMDB60274'
p1226
sS'cpd:C05399'
p1227
VPUBCHEM7766
p1228
sS'mmu:258700'
p1229
VOlfr1451
p1230
sS'cpd:C03939'
p1231
VPUBCHEM6663
p1232
sS'mmu:21354'
p1233
VTap1
p1234
sS'mmu:21356'
p1235
VTapbp
p1236
sS'mmu:21353'
p1237
VTank
p1238
sS'cpd:C01528'
p1239
S'HMDB11110'
p1240
sS'cpd:C00306'
p1241
S'HMDB04246'
p1242
sS'mmu:16728'
p1243
VL1cam
p1244
sS'mmu:258703'
p1245
VOlfr402
p1246
sS'mmu:14805'
p1247
VGrik1
p1248
sS'mmu:58226'
p1249
VCacna1h
p1250
sS'cpd:C00705'
p1251
S'HMDB01245'
p1252
sS'cpd:C00704'
p1253
S'HMDB02168'
p1254
sS'mmu:110935'
p1255
VAtp6v1b1
p1256
sS'cpd:C00700'
p1257
S'HMDB00293'
p1258
sS'mmu:257882'
p1259
VOlfr1344
p1260
sS'cpd:C16254'
p1261
VPUBCHEM47205562
p1262
sS'cpd:C01094'
p1263
VPUBCHEM4329
p1264
sS'cpd:C01097'
p1265
S'HMDB06873'
p1266
sS'cpd:C14089'
p1267
S'HMDB60322'
p1268
sS'mmu:259006'
p1269
VOlfr399
p1270
sS'cpd:C19595'
p1271
VPUBCHEM124490266
p1272
sS'mmu:13427'
p1273
VDync1i2
p1274
sS'cpd:C03069'
p1275
S'HMDB01493'
p1276
sS'cpd:C04282'
p1277
S'HMDB02234'
p1278
sS'cpd:C04281'
p1279
VPUBCHEM6943
p1280
sS'mmu:26987'
p1281
VEif4e2
p1282
sS'mmu:14991'
p1283
VH2-M3
p1284
sS'mmu:19415'
p1285
VRasal1
p1286
sS'mmu:54720'
p1287
VRcan1
p1288
sS'mmu:54721'
p1289
VTyk2
p1290
sS'mmu:227753'
p1291
VGsn
p1292
sS'cpd:C00673'
p1293
VPUBCHEM3942
p1294
sS'cpd:C00672'
p1295
VPUBCHEM3941
p1296
sS'cpd:C00671'
p1297
VPUBCHEM3940
p1298
sS'cpd:C00670'
p1299
VPUBCHEM3939
p1300
sS'mmu:258523'
p1301
VOlfr1186
p1302
sS'mmu:63857'
p1303
VBco1
p1304
sS'mmu:77559'
p1305
VAgl
p1306
sS'mmu:18368'
p1307
VOlfr67
p1308
sS'mmu:18369'
p1309
VOlfr68
p1310
sS'mmu:18365'
p1311
VOlfr65
p1312
sS'mmu:18366'
p1313
VOlfr64
p1314
sS'mmu:18367'
p1315
VOlfr66
p1316
sS'mmu:18361'
p1317
VOlfr60
p1318
sS'mmu:18362'
p1319
VOlfr61
p1320
sS'mmu:18363'
p1321
VOlfr62
p1322
sS'cpd:C04373'
p1323
S'HMDB00490'
p1324
sS'mmu:13040'
p1325
VCtss
p1326
sS'cpd:C01944'
p1327
VPUBCHEM5048
p1328
sS'mmu:13043'
p1329
VCttn
p1330
sS'mmu:18563'
p1331
VPcx
p1332
sS'mmu:258449'
p1333
VOlfr282
p1334
sS'cpd:C15915'
p1335
S'HMDB06840'
p1336
sS'mmu:231327'
p1337
VPpat
p1338
sS'mmu:15033'
p1339
VH2-T18
p1340
sS'cpd:C04598'
p1341
VPUBCHEM7195
p1342
sS'cpd:C12248'
p1343
S'HMDB59663'
p1344
sS'gl:G00171'
p1345
S'glG00171'
p1346
sS'mmu:13557'
p1347
VE2f3
p1348
sS'mmu:13555'
p1349
VE2f1
p1350
sS'mmu:319480'
p1351
VItga11
p1352
sS'mmu:257886'
p1353
VOlfr225
p1354
sS'gl:G13037'
p1355
S'glG13037'
p1356
sS'mmu:723905'
p1357
VMir17
p1358
sS'cpd:C07481'
p1359
S'HMDB01847'
p1360
sS'mmu:54616'
p1361
VExtl3
p1362
sS'mmu:18969'
p1363
VPola2
p1364
sS'mmu:18044'
p1365
VNfya
p1366
sS'cpd:C02642'
p1367
S'HMDB00026'
p1368
sS'mmu:17295'
p1369
VMet
p1370
sS'mmu:268902'
p1371
VRobo2
p1372
sS'cpd:C07712'
p1373
VPUBCHEM9914
p1374
sS'cpd:C05977'
p1375
VPUBCHEM8257
p1376
sS'mmu:258709'
p1377
VOlfr248
p1378
sS'cpd:C05974'
p1379
VPUBCHEM8254
p1380
sS'cpd:C05973'
p1381
VPUBCHEM8253
p1382
sS'mmu:320404'
p1383
VItpkb
p1384
sS'mmu:13137'
p1385
VCd55b
p1386
sS'mmu:723955'
p1387
VMir135a-2
p1388
sS'mmu:723954'
p1389
VMir133a-2
p1390
sS'mmu:11600'
p1391
VAngpt1
p1392
sS'mmu:723950'
p1393
VMir124a-2
p1394
sS'mmu:723953'
p1395
VMir129-2
p1396
sS'mmu:11975'
p1397
VAtp6v0a1
p1398
sS'cpd:C05673'
p1399
S'HMDB60067'
p1400
sS'cpd:C04620'
p1401
VPUBCHEM7210
p1402
sS'mmu:192119'
p1403
VDicer1
p1404
sS'mmu:258990'
p1405
VOlfr447
p1406
sS'mmu:258991'
p1407
VOlfr1496
p1408
sS'mmu:258992'
p1409
VOlfr1494
p1410
sS'mmu:258993'
p1411
VOlfr206
p1412
sS'mmu:258995'
p1413
VOlfr176
p1414
sS'mmu:258996'
p1415
VOlfr201
p1416
sS'mmu:258997'
p1417
VOlfr202
p1418
sS'mmu:258998'
p1419
VOlfr177
p1420
sS'mmu:258999'
p1421
VOlfr178
p1422
sS'mmu:12390'
p1423
VCav2
p1424
sS'mmu:12395'
p1425
VRunx1t1
p1426
sS'mmu:12394'
p1427
VRunx1
p1428
sS'cpd:C03242'
p1429
S'HMDB02925'
p1430
sS'cpd:C00295'
p1431
S'HMDB00226'
p1432
sS'cpd:C00294'
p1433
S'HMDB00195'
p1434
sS'cpd:C00299'
p1435
S'HMDB00296'
p1436
sS'cpd:C00053'
p1437
S'HMDB01134'
p1438
sS'cpd:C00052'
p1439
VPUBCHEM3354
p1440
sS'cpd:C00051'
p1441
S'HMDB00125'
p1442
sS'cpd:C00055'
p1443
S'HMDB00095'
p1444
sS'cpd:C00054'
p1445
S'HMDB00061'
p1446
sS'cpd:C04751'
p1447
S'HMDB06273'
p1448
sS'cpd:C00059'
p1449
VPUBCHEM3359
p1450
sS'cpd:C00058'
p1451
S'HMDB00142'
p1452
sS'cpd:C04756'
p1453
VPUBCHEM7325
p1454
sS'mmu:258198'
p1455
VOlfr224
p1456
sS'mmu:259112'
p1457
VOlfr979
p1458
sS'mmu:259111'
p1459
VOlfr974
p1460
sS'mmu:259110'
p1461
VOlfr980
p1462
sS'mmu:259117'
p1463
VOlfr560
p1464
sS'mmu:259116'
p1465
VOlfr559
p1466
sS'mmu:259115'
p1467
VOlfr586
p1468
sS'mmu:259114'
p1469
VOlfr570
p1470
sS'mmu:259119'
p1471
VOlfr578
p1472
sS'mmu:259118'
p1473
VOlfr575
p1474
sS'mmu:258196'
p1475
VOlfr309
p1476
sS'mmu:629203'
p1477
VSult2a3
p1478
sS'mmu:408192'
p1479
VGm9839
p1480
sS'mmu:408191'
p1481
VGm5415
p1482
sS'cpd:C03455'
p1483
S'HMDB60338'
p1484
sS'mmu:20663'
p1485
VSos2
p1486
sS'mmu:27375'
p1487
VTjp3
p1488
sS'mmu:435802'
p1489
VCyp4a30b
p1490
sS'mmu:27371'
p1491
VSh2d2a
p1492
sS'mmu:230861'
p1493
VEif4g3
p1494
sS'cpd:C02282'
p1495
VPUBCHEM5339
p1496
sS'cpd:C00683'
p1497
S'HMDB01269'
p1498
sS'mmu:259027'
p1499
VOlfr380
p1500
sS'mmu:259026'
p1501
VOlfr378
p1502
sS'mmu:259025'
p1503
VOlfr385
p1504
sS'mmu:259024'
p1505
VOlfr381
p1506
sS'mmu:259023'
p1507
VOlfr1055
p1508
sS'mmu:259022'
p1509
VOlfr1061
p1510
sS'mmu:16522'
p1511
VKcnj6
p1512
sS'mmu:259020'
p1513
VOlfr1056
p1514
sS'mmu:723944'
p1515
VMir200c
p1516
sS'mmu:258378'
p1517
VOlfr593
p1518
sS'mmu:258379'
p1519
VOlfr1284
p1520
sS'mmu:258374'
p1521
VOlfr127
p1522
sS'mmu:258375'
p1523
VOlfr794
p1524
sS'mmu:258377'
p1525
VOlfr654
p1526
sS'mmu:11550'
p1527
VAdra1d
p1528
sS'mmu:11551'
p1529
VAdra2a
p1530
sS'mmu:11552'
p1531
VAdra2b
p1532
sS'mmu:258373'
p1533
VOlfr323
p1534
sS'mmu:232714'
p1535
VMgam
p1536
sS'cpd:C05404'
p1537
S'HMDB60468'
p1538
sS'cpd:C05402'
p1539
S'HMDB00048'
p1540
sS'cpd:C05401'
p1541
VPUBCHEM7768
p1542
sS'cpd:C05400'
p1543
VPUBCHEM7767
p1544
sS'mmu:326622'
p1545
VUpf2
p1546
sS'cpd:C16365'
p1547
S'HMDB11105'
p1548
sS'mmu:257632'
p1549
VNod2
p1550
sS'cpd:C02758'
p1551
VPUBCHEM5715
p1552
sS'cpd:C06196'
p1553
S'HMDB06555'
p1554
sS'mmu:258979'
p1555
VOlfr1255
p1556
sS'mmu:258758'
p1557
VOlfr1406
p1558
sS'mmu:258759'
p1559
VOlfr1408
p1560
sS'mmu:258756'
p1561
VOlfr414
p1562
sS'mmu:258973'
p1563
VOlfr1228
p1564
sS'mmu:258970'
p1565
VOlfr1242
p1566
sS'mmu:258755'
p1567
VOlfr672
p1568
sS'mmu:258976'
p1569
VOlfr1262
p1570
sS'mmu:258753'
p1571
VOlfr678
p1572
sS'mmu:258750'
p1573
VOlfr551
p1574
sS'cpd:C00243'
p1575
VPUBCHEM3542
p1576
sS'mmu:387251'
p1577
VMirlet7i
p1578
sS'mmu:387252'
p1579
VMirlet7f-1
p1580
sS'mmu:387253'
p1581
VMirlet7f-2
p1582
sS'mmu:51801'
p1583
VRamp1
p1584
sS'mmu:258577'
p1585
VOlfr1026
p1586
sS'mmu:100502876'
p1587
VKcnmb3
p1588
sS'mmu:258572'
p1589
VOlfr1032
p1590
sS'cpd:C00877'
p1591
S'HMDB02009'
p1592
sS'mmu:258571'
p1593
VOlfr1033
p1594
sS'cpd:C02630'
p1595
S'HMDB59655'
p1596
sS'mmu:258579'
p1597
VOlfr1018
p1598
sS'cpd:C05577'
p1599
S'HMDB06242'
p1600
sS'cpd:C05576'
p1601
S'HMDB00318'
p1602
sS'cpd:C03722'
p1603
S'HMDB00232'
p1604
sS'cpd:C05579'
p1605
S'HMDB06779'
p1606
sS'cpd:C05578'
p1607
S'HMDB04058'
p1608
sS'mmu:70192'
p1609
VCd209g
p1610
sS'cpd:C16560'
p1611
S'HMDB60655'
p1612
sS'cpd:C16561'
p1613
S'HMDB60656'
p1614
sS'cpd:C16565'
p1615
S'HMDB12189'
p1616
sS'cpd:C16618'
p1617
S'HMDB60418'
p1618
sS'cpd:C16619'
p1619
S'HMDB60789'
p1620
sS'mmu:74182'
p1621
VGpcpd1
p1622
sS'cpd:C16613'
p1623
S'HMDB60417'
p1624
sS'cpd:C16610'
p1625
S'HMDB60463'
p1626
sS'mmu:224997'
p1627
VDlgap1
p1628
sS'cpd:C16617'
p1629
S'HMDB60790'
p1630
sS'cpd:C16614'
p1631
S'HMDB60412'
p1632
sS'cpd:C16615'
p1633
S'HMDB60414'
p1634
sS'mmu:258408'
p1635
VOlfr463
p1636
sS'mmu:258409'
p1637
VOlfr1431
p1638
sS'mmu:258402'
p1639
VOlfr1079
p1640
sS'mmu:258403'
p1641
VOlfr1065
p1642
sS'mmu:258401'
p1643
VOlfr1076
p1644
sS'cpd:C16586'
p1645
S'HMDB60351'
p1646
sS'cpd:C16587'
p1647
S'HMDB60366'
p1648
sS'cpd:C16584'
p1649
S'HMDB60669'
p1650
sS'mmu:258405'
p1651
VOlfr1420
p1652
sS'cpd:C03838'
p1653
S'HMDB02022'
p1654
sS'cpd:C02835'
p1655
S'HMDB02024'
p1656
sS'mmu:69379'
p1657
VC8g
p1658
sS'cpd:C02528'
p1659
S'HMDB00518'
p1660
sS'cpd:C01277'
p1661
VPUBCHEM4496
p1662
sS'cpd:C01272'
p1663
VPUBCHEM4491
p1664
sS'mmu:83996'
p1665
VMmp1b
p1666
sS'cpd:C04376'
p1667
S'HMDB01308'
p1668
sS'mmu:14388'
p1669
VGab1
p1670
sS'mmu:14389'
p1671
VGab2
p1672
sS'cpd:C00909'
p1673
S'HMDB01337'
p1674
sS'mmu:239134'
p1675
VGucy1b2
p1676
sS'cpd:C00459'
p1677
S'HMDB01342'
p1678
sS'cpd:C00458'
p1679
S'HMDB00998'
p1680
sS'cpd:C00903'
p1681
S'HMDB03441'
p1682
sS'mmu:723902'
p1683
VMir7-1
p1684
sS'mmu:70737'
p1685
VCgn
p1686
sS'cpd:C00906'
p1687
S'HMDB00079'
p1688
sS'cpd:C18182'
p1689
VPUBCHEM96024398
p1690
sS'mmu:18770'
p1691
VPklr
p1692
sS'mmu:16782'
p1693
VLamc2
p1694
sS'mmu:668137'
p1695
VGm8994
p1696
sS'mmu:244701'
p1697
VMtnr1b
p1698
sS'mmu:14815'
p1699
VNr3c1
p1700
sS'mmu:216739'
p1701
VAcsl6
p1702
sS'mmu:108067'
p1703
VEif2b3
p1704
sS'mmu:18481'
p1705
VPak3
p1706
sS'mmu:17203'
p1707
VMc5r
p1708
sS'mmu:109828'
p1709
VC7
p1710
sS'mmu:13636'
p1711
VEfna1
p1712
sS'cpd:C01089'
p1713
S'HMDB00011'
p1714
sS'mmu:18176'
p1715
VNras
p1716
sS'cpd:C01083'
p1717
S'HMDB00975'
p1718
sS'cpd:C01081'
p1719
VPUBCHEM4319
p1720
sS'mmu:14658'
p1721
VGlrb
p1722
sS'mmu:81877'
p1723
VTnxb
p1724
sS'cpd:C19588'
p1725
S'HMDB60430'
p1726
sS'cpd:C19586'
p1727
S'HMDB06558'
p1728
sS'mmu:258089'
p1729
VOlfr304
p1730
sS'mmu:245616'
p1731
VKir3dl1
p1732
sS'cpd:C04295'
p1733
S'HMDB03818'
p1734
sS'gl:G10596'
p1735
S'glG10596'
p1736
sS'gl:G10597'
p1737
S'glG10597'
p1738
sS'gl:G10595'
p1739
S'glG10595'
p1740
sS'gl:G10598'
p1741
S'glG10598'
p1742
sS'gl:G10599'
p1743
S'glG10599'
p1744
sS'cpd:C03012'
p1745
S'HMDB60497'
p1746
sS'cpd:C11376'
p1747
S'HMDB60511'
p1748
sS'cpd:C00606'
p1749
S'HMDB60179'
p1750
sS'cpd:C00603'
p1751
S'HMDB01005'
p1752
sS'cpd:C00601'
p1753
S'HMDB06236'
p1754
sS'cpd:C15906'
p1755
VPUBCHEM47205225
p1756
sS'cpd:C00081'
p1757
S'HMDB00189'
p1758
sS'cpd:C03785'
p1759
S'HMDB06872'
p1760
sS'mmu:192897'
p1761
VItgb4
p1762
sS'cpd:C12270'
p1763
S'HMDB01067'
p1764
sS'cpd:C12271'
p1765
VPUBCHEM14416
p1766
sS'cpd:C12272'
p1767
VPUBCHEM14417
p1768
sS'gl:G00162'
p1769
S'glG00162'
p1770
sS'gl:G00163'
p1771
S'glG00163'
p1772
sS'gl:G00160'
p1773
S'glG00160'
p1774
sS'cpd:C04582'
p1775
VPUBCHEM7183
p1776
sS'gl:G00164'
p1777
S'glG00164'
p1778
sS'cpd:C03127'
p1779
VPUBCHEM6020
p1780
sS'cpd:C03125'
p1781
VPUBCHEM6018
p1782
sS'cpd:C00086'
p1783
S'HMDB00294'
p1784
sS'mmu:433247'
p1785
VCyp2c68
p1786
sS'cpd:C00112'
p1787
S'HMDB01546'
p1788
sS'cpd:C20825'
p1789
S'cpdC20825'
p1790
sS'cpd:C00110'
p1791
VPUBCHEM3410
p1792
sS'cpd:C00111'
p1793
S'HMDB01473'
p1794
sS'cpd:C00116'
p1795
S'HMDB00131'
p1796
sS'cpd:C00117'
p1797
S'HMDB01548'
p1798
sS'cpd:C00114'
p1799
S'HMDB00097'
p1800
sS'cpd:C15613'
p1801
VPUBCHEM17396604
p1802
sS'cpd:C00118'
p1803
VPUBCHEM3418
p1804
sS'cpd:C00119'
p1805
S'HMDB00280'
p1806
sS'mmu:504186'
p1807
VChrna10
p1808
sS'cpd:C08276'
p1809
S'HMDB01527'
p1810
sS'cpd:C05980'
p1811
VPUBCHEM8259
p1812
sS'cpd:C05981'
p1813
VPUBCHEM8260
p1814
sS'cpd:C05984'
p1815
VPUBCHEM8262
p1816
sS'mmu:258774'
p1817
VOlfr1208
p1818
sS'mmu:258959'
p1819
VOlfr170
p1820
sS'mmu:16641'
p1821
VKlrc1
p1822
sS'mmu:16642'
p1823
VKlrc2
p1824
sS'cpd:C04637'
p1825
VPUBCHEM7226
p1826
sS'cpd:C04635'
p1827
VPUBCHEM7224
p1828
sS'mmu:258715'
p1829
VOlfr421-ps1
p1830
sS'mmu:218397'
p1831
VRasa1
p1832
sS'mmu:11949'
p1833
VAtp5c1
p1834
sS'mmu:258987'
p1835
VOlfr1270
p1836
sS'mmu:258778'
p1837
VOlfr921
p1838
sS'mmu:258985'
p1839
VOlfr1256
p1840
sS'mmu:258984'
p1841
VOlfr1257
p1842
sS'mmu:258983'
p1843
VOlfr1260
p1844
sS'mmu:74987'
p1845
VCldn34d
p1846
sS'mmu:26565'
p1847
VPla2g10
p1848
sS'mmu:258980'
p1849
VOlfr1258
p1850
sS'mmu:258989'
p1851
VOlfr457
p1852
sS'mmu:258988'
p1853
VOlfr38
p1854
sS'cpd:C07585'
p1855
S'HMDB41821'
p1856
sS'mmu:621580'
p1857
VGm13308
p1858
sS'cpd:C03232'
p1859
S'HMDB01024'
p1860
sS'cpd:C03231'
p1861
VPUBCHEM6102
p1862
sS'cpd:C15670'
p1863
VPUBCHEM47204997
p1864
sS'cpd:C15672'
p1865
VPUBCHEM47204998
p1866
sS'cpd:C00026'
p1867
S'HMDB00208'
p1868
sS'mmu:723895'
p1869
VMir31
p1870
sS'cpd:C00024'
p1871
VPUBCHEM3326
p1872
sS'cpd:C00025'
p1873
S'HMDB00148'
p1874
sS'cpd:C00022'
p1875
S'HMDB00243'
p1876
sS'mmu:723891'
p1877
VMir19a
p1878
sS'cpd:C00020'
p1879
S'HMDB00045'
p1880
sS'mmu:723893'
p1881
VMir10a
p1882
sS'cpd:C14782'
p1883
S'HMDB04684'
p1884
sS'cpd:C04742'
p1885
S'HMDB03876'
p1886
sS'mmu:16885'
p1887
VLimk1
p1888
sS'cpd:C00029'
p1889
S'HMDB60079'
p1890
sS'cpd:C13747'
p1891
S'HMDB01860'
p1892
sS'mmu:259165'
p1893
VOlfr814
p1894
sS'mmu:259162'
p1895
VOlfr427
p1896
sS'mmu:259163'
p1897
VOlfr1354
p1898
sS'mmu:258189'
p1899
VOlfr624
p1900
sS'cpd:C16510'
p1901
VPUBCHEM49661770
p1902
sS'cpd:C05766'
p1903
S'HMDB02211'
p1904
sS'cpd:C05764'
p1905
VPUBCHEM8059
p1906
sS'cpd:C05762'
p1907
VPUBCHEM8057
p1908
sS'cpd:C05763'
p1909
VPUBCHEM8058
p1910
sS'cpd:C05760'
p1911
VPUBCHEM8055
p1912
sS'cpd:C05761'
p1913
VPUBCHEM8056
p1914
sS'mmu:233016'
p1915
VBlvrb
p1916
sS'mmu:12163'
p1917
VBmp8a
p1918
sS'mmu:67653'
p1919
V4930544G11Rik
p1920
sS'mmu:27369'
p1921
VDguok
p1922
sS'cpd:C02291'
p1923
S'HMDB00099'
p1924
sS'mmu:258497'
p1925
VOlfr961
p1926
sS'mmu:258545'
p1927
VOlfr811
p1928
sS'cpd:C03344'
p1929
VPUBCHEM6187
p1930
sS'cpd:C03345'
p1931
S'HMDB02054'
p1932
sS'mmu:723968'
p1933
VMir9-3
p1934
sS'cpd:C00338'
p1935
VPUBCHEM3631
p1936
sS'cpd:C00332'
p1937
S'HMDB01484'
p1938
sS'cpd:C00330'
p1939
S'HMDB00085'
p1940
sS'cpd:C00331'
p1941
S'HMDB60484'
p1942
sS'mmu:723964'
p1943
VMir30c-2
p1944
sS'cpd:C00337'
p1945
S'HMDB03349'
p1946
sS'cpd:C00334'
p1947
S'HMDB00112'
p1948
sS'mmu:218461'
p1949
VPde8b
p1950
sS'mmu:258363'
p1951
VOlfr1093
p1952
sS'mmu:18607'
p1953
VPdpk1
p1954
sS'mmu:258360'
p1955
VOlfr731
p1956
sS'mmu:258544'
p1957
VOlfr788
p1958
sS'mmu:258366'
p1959
VOlfr434
p1960
sS'mmu:258365'
p1961
VOlfr361
p1962
sS'mmu:258364'
p1963
VOlfr976
p1964
sS'cpd:C00857'
p1965
S'HMDB01179'
p1966
sS'mmu:258369'
p1967
VOlfr509
p1968
sS'mmu:258368'
p1969
VOlfr1450
p1970
sS'mmu:258227'
p1971
VOlfr1418
p1972
sS'mmu:258543'
p1973
VOlfr810
p1974
sS'mmu:333715'
p1975
VH2-M10.2
p1976
sS'cpd:C16375'
p1977
VPUBCHEM47205683
p1978
sS'cpd:C16374'
p1979
VPUBCHEM47205682
p1980
sS'cpd:C12126'
p1981
VPUBCHEM14273
p1982
sS'cpd:C16376'
p1983
VPUBCHEM47205684
p1984
sS'mmu:20248'
p1985
VSerpinb3a
p1986
sS'mmu:56532'
p1987
VRipk3
p1988
sS'mmu:258969'
p1989
VOlfr1226
p1990
sS'mmu:258968'
p1991
VOlfr1247
p1992
sS'cpd:C01885'
p1993
VPUBCHEM4998
p1994
sS'mmu:258749'
p1995
VOlfr556
p1996
sS'mmu:258748'
p1997
VOlfr1195
p1998
sS'cpd:C01880'
p1999
S'HMDB60476'
p2000
sS'mmu:258745'
p2001
VOlfr689
p2002
sS'mmu:258744'
p2003
VOlfr875
p2004
sS'mmu:258747'
p2005
VOlfr1106
p2006
sS'mmu:258962'
p2007
VOlfr53
p2008
sS'mmu:258741'
p2009
VOlfr935
p2010
sS'mmu:106557'
p2011
VLdhal6b
p2012
sS'mmu:258743'
p2013
VOlfr661
p2014
sS'cpd:C01888'
p2015
S'HMDB02134'
p2016
sS'cpd:C16115'
p2017
VPUBCHEM47205425
p2018
sS'cpd:C16114'
p2019
VPUBCHEM47205424
p2020
sS'cpd:C16117'
p2021
VPUBCHEM47205427
p2022
sS'cpd:C05294'
p2023
S'HMDB60089'
p2024
sS'mmu:380928'
p2025
VLmo7
p2026
sS'mmu:257884'
p2027
VOlfr744
p2028
sS'cpd:C05295'
p2029
S'HMDB03959'
p2030
sS'cpd:C16119'
p2031
VPUBCHEM47205429
p2032
sS'cpd:C16118'
p2033
VPUBCHEM47205428
p2034
sS'mmu:380921'
p2035
VDgkh
p2036
sS'mmu:235542'
p2037
VPpp2r3a
p2038
sS'mmu:258564'
p2039
VOlfr1015
p2040
sS'cpd:C00847'
p2041
S'HMDB00017'
p2042
sS'mmu:258561'
p2043
VOlfr1012
p2044
sS'mmu:258560'
p2045
VOlfr843
p2046
sS'mmu:258563'
p2047
VOlfr1006
p2048
sS'mmu:258562'
p2049
VOlfr1014
p2050
sS'mmu:723951'
p2051
VMir124a-3
p2052
sS'mmu:258569'
p2053
VOlfr459
p2054
sS'mmu:258568'
p2055
VOlfr1457
p2056
sS'cpd:C05504'
p2057
S'HMDB06766'
p2058
sS'cpd:C05299'
p2059
S'HMDB00010'
p2060
sS'cpd:C05502'
p2061
S'HMDB04035'
p2062
sS'cpd:C05503'
p2063
VPUBCHEM7856
p2064
sS'cpd:C05500'
p2065
VPUBCHEM7853
p2066
sS'cpd:C05501'
p2067
VPUBCHEM7854
p2068
sS'mmu:723952'
p2069
VMir125b-2
p2070
sS'cpd:C16577'
p2071
S'HMDB60464'
p2072
sS'cpd:C03740'
p2073
VPUBCHEM6503
p2074
sS'cpd:C13051'
p2075
VPUBCHEM583440
p2076
sS'cpd:C13050'
p2077
VPUBCHEM583439
p2078
sS'mmu:100470'
p2079
VLao1
p2080
sS'cpd:C16578'
p2081
S'HMDB41937'
p2082
sS'cpd:C16609'
p2083
S'HMDB60472'
p2084
sS'cpd:C16608'
p2085
S'HMDB14021'
p2086
sS'mmu:242669'
p2087
VAzin2
p2088
sS'mmu:723959'
p2089
VMir1a-2
p2090
sS'cpd:C16136'
p2091
VPUBCHEM47205446
p2092
sS'cpd:C16591'
p2093
S'HMDB60367'
p2094
sS'mmu:258410'
p2095
VOlfr291
p2096
sS'mmu:258413'
p2097
VOlfr881
p2098
sS'mmu:258412'
p2099
VOlfr877
p2100
sS'cpd:C16595'
p2101
S'HMDB60389'
p2102
sS'mmu:258414'
p2103
VOlfr883
p2104
sS'cpd:C16596'
p2105
S'HMDB60400'
p2106
sS'cpd:C02514'
p2107
S'HMDB60371'
p2108
sS'cpd:C02515'
p2109
S'HMDB00021'
p2110
sS'cpd:C01261'
p2111
S'HMDB01340'
p2112
sS'cpd:C01260'
p2113
S'HMDB01211'
p2114
sS'cpd:C05212'
p2115
VPUBCHEM7616
p2116
sS'cpd:C18995'
p2117
VPUBCHEM124489667
p2118
sS'cpd:C18994'
p2119
VPUBCHEM124489666
p2120
sS'cpd:C03820'
p2121
VPUBCHEM6564
p2122
sS'mmu:75590'
p2123
VDusp9
p2124
sS'mmu:73988'
p2125
V4930438A08Rik
p2126
sS'mmu:223706'
p2127
VCyp2d34
p2128
sS'mmu:228607'
p2129
VMavs
p2130
sS'mmu:387242'
p2131
VMir200a
p2132
sS'mmu:20750'
p2133
VSpp1
p2134
sS'mmu:20751'
p2135
VSpr
p2136
sS'mmu:387247'
p2137
VMirlet7d
p2138
sS'mmu:387246'
p2139
VMirlet7c-1
p2140
sS'mmu:387245'
p2141
VMirlet7b
p2142
sS'mmu:387244'
p2143
VMirlet7a-1
p2144
sS'cpd:C13523'
p2145
VPUBCHEM853892
p2146
sS'cpd:C05172'
p2147
S'HMDB03840'
p2148
sS'mmu:107589'
p2149
VMylk
p2150
sS'mmu:18762'
p2151
VPrkcz
p2152
sS'cpd:C00937'
p2153
S'HMDB06458'
p2154
sS'cpd:C00931'
p2155
S'HMDB00245'
p2156
sS'cpd:C05379'
p2157
S'HMDB03974'
p2158
sS'cpd:C05378'
p2159
S'HMDB60444'
p2160
sS'cpd:C03912'
p2161
VPUBCHEM6642
p2162
sS'cpd:C03917'
p2163
S'HMDB02961'
p2164
sS'mmu:74409'
p2165
VHyal6
p2166
sS'cpd:C02990'
p2167
S'HMDB00222'
p2168
sS'cpd:C02992'
p2169
VPUBCHEM5901
p2170
sS'mmu:24055'
p2171
VSh3bp2
p2172
sS'mmu:110557'
p2173
VH2-Q6
p2174
sS'mmu:14823'
p2175
VGrm8
p2176
sS'gl:G10610'
p2177
S'glG10610'
p2178
sS'gl:G10613'
p2179
S'glG10613'
p2180
sS'gl:G10614'
p2181
S'glG10614'
p2182
sS'gl:G10617'
p2183
S'glG10617'
p2184
sS'cpd:C00290'
p2185
VPUBCHEM3584
p2186
sS'gl:G10618'
p2187
S'glG10618'
p2188
sS'mmu:80794'
p2189
VCblc
p2190
sS'cpd:C19488'
p2191
VPUBCHEM124490160
p2192
sS'cpd:C19489'
p2193
S'HMDB60341'
p2194
sS'mmu:67933'
p2195
VHcfc2
p2196
sS'mmu:69772'
p2197
VBdh2
p2198
sS'cpd:C01672'
p2199
S'HMDB02322'
p2200
sS'cpd:C01673'
p2201
S'HMDB01903'
p2202
sS'cpd:C01674'
p2203
VPUBCHEM4818
p2204
sS'mmu:108071'
p2205
VGrm5
p2206
sS'cpd:C01678'
p2207
S'HMDB60150'
p2208
sS'cpd:C01074'
p2209
VPUBCHEM4312
p2210
sS'mmu:15964'
p2211
VIfna11
p2212
sS'mmu:66350'
p2213
VPla2g12a
p2214
sS'mmu:18167'
p2215
VNpy2r
p2216
sS'cpd:C01079'
p2217
S'HMDB01097'
p2218
sS'mmu:668035'
p2219
VOlfr687
p2220
sS'mmu:381404'
p2221
VPabpc1l
p2222
sS'cpd:C11583'
p2223
S'HMDB60387'
p2224
sS'cpd:C19574'
p2225
S'HMDB41809'
p2226
sS'mmu:226525'
p2227
VRasal2
p2228
sS'mmu:258740'
p2229
VOlfr957
p2230
sS'mmu:14755'
p2231
VPigq
p2232
sS'mmu:14756'
p2233
VGpld1
p2234
sS'mmu:17882'
p2235
VMyh2
p2236
sS'cpd:C17333'
p2237
VPUBCHEM96023695
p2238
sS'cpd:C15808'
p2239
S'HMDB01181'
p2240
sS'mmu:21809'
p2241
VTgfb3
p2242
sS'cpd:C00618'
p2243
S'HMDB06334'
p2244
sS'mmu:14985'
p2245
VH2-M10.1
p2246
sS'mmu:15932'
p2247
VIdua
p2248
sS'cpd:C14040'
p2249
VPUBCHEM7846934
p2250
sS'mmu:108037'
p2251
VShmt2
p2252
sS'mmu:110094'
p2253
VPhka2
p2254
sS'cpd:C01185'
p2255
S'HMDB59646'
p2256
sS'cpd:C04352'
p2257
S'HMDB01117'
p2258
sS'cpd:C01181'
p2259
S'HMDB01161'
p2260
sS'mmu:246221'
p2261
VMpst
p2262
sS'mmu:18018'
p2263
VNfatc1
p2264
sS'mmu:18019'
p2265
VNfatc2
p2266
sS'cpd:C01189'
p2267
S'HMDB01170'
p2268
sS'gl:G00159'
p2269
S'glG00159'
p2270
sS'gl:G00158'
p2271
S'glG00158'
p2272
sS'gl:G00157'
p2273
S'glG00157'
p2274
sS'gl:G00156'
p2275
S'glG00156'
p2276
sS'gl:G00155'
p2277
S'glG00155'
p2278
sS'mmu:18947'
p2279
VPnliprp2
p2280
sS'gl:G01977'
p2281
S'glG01977'
p2282
sS'mmu:13087'
p2283
VCyp2a5
p2284
sS'mmu:13088'
p2285
VCyp2b10
p2286
sS'mmu:13089'
p2287
VCyp2b13
p2288
sS'mmu:218811'
p2289
VSec24c
p2290
sS'cpd:C00100'
p2291
S'HMDB01275'
p2292
sS'cpd:C00103'
p2293
VPUBCHEM3403
p2294
sS'cpd:C01501'
p2295
VPUBCHEM4670
p2296
sS'cpd:C00105'
p2297
S'HMDB00288'
p2298
sS'gl:G00088'
p2299
S'glG00088'
p2300
sS'cpd:C00106'
p2301
S'HMDB00300'
p2302
sS'gl:G00085'
p2303
S'glG00085'
p2304
sS'cpd:C00108'
p2305
S'HMDB01123'
p2306
sS'gl:G00086'
p2307
S'glG00086'
p2308
sS'gl:G00081'
p2309
S'glG00081'
p2310
sS'gl:G00083'
p2311
S'glG00083'
p2312
sS'gl:G00082'
p2313
S'glG00082'
p2314
sS'mmu:108099'
p2315
VPrkag2
p2316
sS'cpd:C21013'
p2317
S'cpdC21013'
p2318
sS'cpd:C05993'
p2319
S'HMDB06880'
p2320
sS'cpd:C21011'
p2321
S'cpdC21011'
p2322
sS'cpd:C21016'
p2323
S'cpdC21016'
p2324
sS'cpd:C21017'
p2325
S'cpdC21017'
p2326
sS'cpd:C21014'
p2327
S'cpdC21014'
p2328
sS'cpd:C21015'
p2329
S'cpdC21015'
p2330
sS'cpd:C05998'
p2331
S'HMDB06870'
p2332
sS'cpd:C21018'
p2333
S'cpdC21018'
p2334
sS'cpd:C01697'
p2335
S'HMDB00107'
p2336
sS'cpd:C02465'
p2337
S'HMDB00265'
p2338
sS'cpd:C04646'
p2339
S'HMDB60416'
p2340
sS'cpd:C02191'
p2341
S'HMDB00241'
p2342
sS'cpd:C04640'
p2343
S'HMDB00999'
p2344
sS'cpd:C02198'
p2345
S'HMDB01452'
p2346
sS'mmu:13885'
p2347
VEsd
p2348
sS'mmu:12371'
p2349
VCasp9
p2350
sS'cpd:C02350'
p2351
VPUBCHEM5397
p2352
sS'cpd:C02356'
p2353
S'HMDB61050'
p2354
sS'cpd:C06865'
p2355
VPUBCHEM9082
p2356
sS'cpd:C06866'
p2357
S'HMDB02227'
p2358
sS'cpd:C16088'
p2359
VPUBCHEM47205398
p2360
sS'mmu:66826'
p2361
VTaz
p2362
sS'mmu:100043474'
p2363
VGm4461
p2364
sS'mmu:107239'
p2365
VCarns1
p2366
sS'cpd:C03227'
p2367
S'HMDB11631'
p2368
sS'cpd:C03990'
p2369
VPUBCHEM6705
p2370
sS'cpd:C03221'
p2371
S'HMDB11689'
p2372
sS'mmu:723883'
p2373
VMir7b
p2374
sS'cpd:C15645'
p2375
VPUBCHEM17396635
p2376
sS'cpd:C15646'
p2377
VPUBCHEM17396636
p2378
sS'cpd:C15647'
p2379
VPUBCHEM17396637
p2380
sS'mmu:723884'
p2381
VMir7-2
p2382
sS'cpd:C00035'
p2383
S'HMDB01201'
p2384
sS'mmu:259052'
p2385
VOlfr659
p2386
sS'cpd:C00037'
p2387
S'HMDB00123'
p2388
sS'cpd:C00036'
p2389
S'HMDB00223'
p2390
sS'cpd:C00031'
p2391
S'HMDB00122'
p2392
sS'cpd:C00033'
p2393
S'HMDB00042'
p2394
sS'cpd:C00032'
p2395
VPUBCHEM3334
p2396
sS'cpd:C04006'
p2397
S'HMDB00213'
p2398
sS'cpd:C00039'
p2399
VPUBCHEM3341
p2400
sS'cpd:C00038'
p2401
S'HMDB01303'
p2402
sS'cpd:C14781'
p2403
S'HMDB05050'
p2404
sS'mmu:258173'
p2405
VOlfr1532-ps1
p2406
sS'mmu:16000'
p2407
VIgf1
p2408
sS'mmu:258177'
p2409
VOlfr1222
p2410
sS'mmu:258178'
p2411
VOlfr180
p2412
sS'mmu:85305'
p2413
VKars
p2414
sS'mmu:16478'
p2415
VJund
p2416
sS'mmu:258888'
p2417
VOlfr1298
p2418
sS'mmu:258889'
p2419
VOlfr1301
p2420
sS'mmu:258886'
p2421
VOlfr1299
p2422
sS'mmu:258887'
p2423
VOlfr1294
p2424
sS'mmu:20438'
p2425
VSiah1b
p2426
sS'mmu:258882'
p2427
VOlfr874
p2428
sS'mmu:258883'
p2429
VOlfr876
p2430
sS'mmu:258880'
p2431
VOlfr218
p2432
sS'cpd:C01213'
p2433
VPUBCHEM4435
p2434
sS'mmu:12286'
p2435
VCacna1a
p2436
sS'cpd:C08821'
p2437
S'HMDB02374'
p2438
sS'cpd:C00329'
p2439
S'HMDB01514'
p2440
sS'cpd:C00328'
p2441
S'HMDB00684'
p2442
sS'mmu:11950'
p2443
VAtp5f1
p2444
sS'cpd:C00320'
p2445
VPUBCHEM3614
p2446
sS'cpd:C00322'
p2447
S'HMDB00225'
p2448
sS'cpd:C00325'
p2449
VPUBCHEM3619
p2450
sS'cpd:C00327'
p2451
S'HMDB00904'
p2452
sS'mmu:277899'
p2453
VGm725
p2454
sS'mmu:258316'
p2455
VOlfr727
p2456
sS'mmu:258317'
p2457
VOlfr1145
p2458
sS'mmu:258314'
p2459
VOlfr725
p2460
sS'mmu:258315'
p2461
VOlfr767
p2462
sS'cpd:C16741'
p2463
S'HMDB00450'
p2464
sS'mmu:258311'
p2465
VOlfr601
p2466
sS'cpd:C06241'
p2467
S'HMDB04381'
p2468
sS'mmu:258319'
p2469
VOlfr187
p2470
sS'mmu:258086'
p2471
VOlfr967
p2472
sS'mmu:258087'
p2473
VOlfr963
p2474
sS'cpd:C05956'
p2475
S'HMDB03235'
p2476
sS'mmu:622434'
p2477
VArhgef26
p2478
sS'mmu:329460'
p2479
VOlfr1193
p2480
sS'mmu:75292'
p2481
VPrkd3
p2482
sS'cpd:C16348'
p2483
S'HMDB60458'
p2484
sS'cpd:C02170'
p2485
S'HMDB00202'
p2486
sS'mmu:258772'
p2487
VOlfr821
p2488
sS'mmu:258773'
p2489
VOlfr818
p2490
sS'mmu:258958'
p2491
VOlfr525
p2492
sS'mmu:258775'
p2493
VOlfr196
p2494
sS'mmu:258776'
p2495
VOlfr715
p2496
sS'mmu:258777'
p2497
VOlfr922
p2498
sS'mmu:258954'
p2499
VOlfr522
p2500
sS'mmu:258955'
p2501
VOlfr531
p2502
sS'mmu:258956'
p2503
VOlfr535
p2504
sS'mmu:258950'
p2505
VOlfr342
p2506
sS'mmu:258951'
p2507
VOlfr339
p2508
sS'mmu:258952'
p2509
VOlfr341
p2510
sS'mmu:258953'
p2511
VOlfr340
p2512
sS'mmu:258558'
p2513
VOlfr837
p2514
sS'mmu:258559'
p2515
VOlfr830
p2516
sS'mmu:258228'
p2517
VOlfr1415
p2518
sS'cpd:C00486'
p2519
S'HMDB00054'
p2520
sS'mmu:258222'
p2521
VOlfr310
p2522
sS'mmu:258551'
p2523
VOlfr866
p2524
sS'mmu:258552'
p2525
VOlfr868
p2526
sS'mmu:258553'
p2527
VOlfr872
p2528
sS'mmu:258554'
p2529
VOlfr873
p2530
sS'mmu:258555'
p2531
VOlfr862
p2532
sS'mmu:258224'
p2533
VOlfr1358
p2534
sS'mmu:258557'
p2535
VOlfr836
p2536
sS'cpd:C04823'
p2537
S'HMDB00797'
p2538
sS'mmu:258798'
p2539
VOlfr902
p2540
sS'mmu:258799'
p2541
VOlfr906
p2542
sS'gl:G00128'
p2543
S'glG00128'
p2544
sS'mmu:258792'
p2545
VOlfr1499
p2546
sS'mmu:258793'
p2547
VOlfr1502
p2548
sS'mmu:258790'
p2549
VOlfr1263
p2550
sS'mmu:258791'
p2551
VOlfr812
p2552
sS'mmu:258797'
p2553
VOlfr904
p2554
sS'mmu:258794'
p2555
VOlfr878
p2556
sS'cpd:C00097'
p2557
S'HMDB00574'
p2558
sS'cpd:C05512'
p2559
S'HMDB00071'
p2560
sS'mmu:20345'
p2561
VSelplg
p2562
sS'mmu:259097'
p2563
VOlfr558
p2564
sS'mmu:20347'
p2565
VSema3b
p2566
sS'cpd:C05519'
p2567
S'HMDB04041'
p2568
sS'mmu:387233'
p2569
VMir124a-1
p2570
sS'mmu:69888'
p2571
VCyp2c66
p2572
sS'mmu:30938'
p2573
VFgd3
p2574
sS'mmu:20182'
p2575
VRxrb
p2576
sS'mmu:20181'
p2577
VRxra
p2578
sS'cpd:C16127'
p2579
VPUBCHEM47205437
p2580
sS'mmu:20186'
p2581
VNr1h4
p2582
sS'mmu:100039801'
p2583
VCldn24
p2584
sS'cpd:C00588'
p2585
S'HMDB01565'
p2586
sS'cpd:C16634'
p2587
S'HMDB60397'
p2588
sS'cpd:C00584'
p2589
S'HMDB01220'
p2590
sS'cpd:C00581'
p2591
S'HMDB00128'
p2592
sS'cpd:C16631'
p2593
S'HMDB60435'
p2594
sS'cpd:C16632'
p2595
S'HMDB60434'
p2596
sS'cpd:C16633'
p2597
S'HMDB60396'
p2598
sS'mmu:328099'
p2599
VPrps1l3
p2600
sS'mmu:258429'
p2601
VOlfr996
p2602
sS'mmu:258424'
p2603
VOlfr1512
p2604
sS'mmu:258425'
p2605
VOlfr994
p2606
sS'mmu:171567'
p2607
VNme7
p2608
sS'mmu:258427'
p2609
VOlfr993
p2610
sS'mmu:258420'
p2611
VOlfr221
p2612
sS'mmu:258421'
p2613
VOlfr223
p2614
sS'mmu:258422'
p2615
VOlfr742
p2616
sS'mmu:258423'
p2617
VOlfr1510
p2618
sS'mmu:15019'
p2619
VH2-Q8
p2620
sS'mmu:15018'
p2621
VH2-Q7
p2622
sS'cpd:C01211'
p2623
VPUBCHEM4433
p2624
sS'mmu:387161'
p2625
VMir143
p2626
sS'mmu:15013'
p2627
VH2-Q2
p2628
sS'cpd:C17346'
p2629
VPUBCHEM96023702
p2630
sS'cpd:C17345'
p2631
VPUBCHEM96023701
p2632
sS'cpd:C17432'
p2633
S'HMDB59616'
p2634
sS'cpd:C17343'
p2635
VPUBCHEM96023700
p2636
sS'gl:G13040'
p2637
S'glG13040'
p2638
sS'mmu:387236'
p2639
VMir125b-1
p2640
sS'mmu:387237'
p2641
VMir129-1
p2642
sS'mmu:387235'
p2643
VMir125a
p2644
sS'cpd:C11821'
p2645
S'HMDB30097'
p2646
sS'cpd:C16126'
p2647
VPUBCHEM47205436
p2648
sS'mmu:387231'
p2649
VMir122
p2650
sS'cpd:C07607'
p2651
S'HMDB14782'
p2652
sS'mmu:387164'
p2653
VMir146
p2654
sS'mmu:387163'
p2655
VMir145a
p2656
sS'mmu:110893'
p2657
VSlc8a3
p2658
sS'mmu:259067'
p2659
VOlfr449
p2660
sS'cpd:C00921'
p2661
S'HMDB01412'
p2662
sS'mmu:69608'
p2663
VSec24d
p2664
sS'cpd:C00925'
p2665
VPUBCHEM4179
p2666
sS'mmu:18712'
p2667
VPim1
p2668
sS'cpd:C05345'
p2669
S'HMDB03971'
p2670
sS'cpd:C05340'
p2671
S'HMDB60441'
p2672
sS'cpd:C05341'
p2673
S'HMDB60442'
p2674
sS'cpd:C01322'
p2675
VPUBCHEM4535
p2676
sS'mmu:16520'
p2677
VKcnj4
p2678
sS'mmu:258120'
p2679
VOlfr1463
p2680
sS'cpd:C14852'
p2681
S'HMDB60438'
p2682
sS'cpd:C14853'
p2683
VPUBCHEM17395851
p2684
sS'cpd:C14850'
p2685
S'HMDB60439'
p2686
sS'cpd:C14851'
p2687
S'HMDB60091'
p2688
sS'gl:G13038'
p2689
S'glG13038'
p2690
sS'gl:G13039'
p2691
S'glG13039'
p2692
sS'mmu:73192'
p2693
VXpot
p2694
sS'cpd:C02988'
p2695
VPUBCHEM5897
p2696
sS'gl:G13034'
p2697
S'glG13034'
p2698
sS'gl:G13035'
p2699
S'glG13035'
p2700
sS'gl:G13036'
p2701
S'glG13036'
p2702
sS'cpd:C14859'
p2703
S'HMDB60452'
p2704
sS'mmu:258275'
p2705
VOlfr729
p2706
sS'cpd:C13550'
p2707
S'HMDB01419'
p2708
sS'mmu:258824'
p2709
VOlfr983
p2710
sS'mmu:258274'
p2711
VOlfr1412
p2712
sS'cpd:C00794'
p2713
S'HMDB00247'
p2714
sS'cpd:C11174'
p2715
VPUBCHEM13356
p2716
sS'cpd:C11173'
p2717
S'HMDB60510'
p2718
sS'mmu:73178'
p2719
VWasl
p2720
sS'mmu:104099'
p2721
VItga9
p2722
sS'cpd:C01061'
p2723
S'HMDB01268'
p2724
sS'cpd:C01060'
p2725
S'HMDB03474'
p2726
sS'cpd:C00533'
p2727
S'HMDB03378'
p2728
sS'cpd:C13856'
p2729
S'HMDB04666'
p2730
sS'mmu:18628'
p2731
VPer3
p2732
sS'mmu:231252'
p2733
VChrna9
p2734
sS'cpd:C19563'
p2735
VPUBCHEM124490235
p2736
sS'cpd:C19562'
p2737
S'HMDB60420'
p2738
sS'mmu:99709'
p2739
VClca4b
p2740
sS'cpd:C19566'
p2741
VPUBCHEM124490238
p2742
sS'cpd:C15816'
p2743
VPUBCHEM47205141
p2744
sS'cpd:C15811'
p2745
VPUBCHEM47205136
p2746
sS'cpd:C03035'
p2747
VPUBCHEM5940
p2748
sS'mmu:13367'
p2749
VDiap1
p2750
sS'cpd:C15812'
p2751
VPUBCHEM47205137
p2752
sS'mmu:258371'
p2753
VOlfr368
p2754
sS'mmu:72399'
p2755
VBrap
p2756
sS'cpd:C00621'
p2757
VPUBCHEM3895
p2758
sS'cpd:C15848'
p2759
VPUBCHEM47205168
p2760
sS'cpd:C00624'
p2761
VPUBCHEM3897
p2762
sS'mmu:258372'
p2763
VOlfr918
p2764
sS'cpd:C00627'
p2765
S'HMDB01319'
p2766
sS'cpd:C11554'
p2767
VPUBCHEM13721
p2768
sS'cpd:C11555'
p2769
S'HMDB04527'
p2770
sS'cpd:C11556'
p2771
VPUBCHEM13723
p2772
sS'cpd:C11557'
p2773
VPUBCHEM13724
p2774
sS'mmu:15901'
p2775
VId1
p2776
sS'gl:G00369'
p2777
S'glG00369'
p2778
sS'cpd:C01194'
p2779
VPUBCHEM4419
p2780
sS'cpd:C01190'
p2781
VPUBCHEM4416
p2782
sS'mmu:18021'
p2783
VNfatc3
p2784
sS'mmu:104418'
p2785
VDgkz
p2786
sS'gl:G00143'
p2787
S'glG00143'
p2788
sS'gl:G00144'
p2789
S'glG00144'
p2790
sS'gl:G00145'
p2791
S'glG00145'
p2792
sS'gl:G00146'
p2793
S'glG00146'
p2794
sS'gl:G00147'
p2795
S'glG00147'
p2796
sS'gl:G00148'
p2797
S'glG00148'
p2798
sS'gl:G00149'
p2799
S'glG00149'
p2800
sS'mmu:215446'
p2801
VEntpd3
p2802
sS'gl:G01945'
p2803
S'glG01945'
p2804
sS'cpd:C12455'
p2805
S'HMDB12815'
p2806
sS'gl:G00059'
p2807
S'glG00059'
p2808
sS'mmu:54646'
p2809
VPpp1r3f
p2810
sS'mmu:54644'
p2811
VOtud5
p2812
sS'mmu:100124432'
p2813
VMir193b
p2814
sS'cpd:C00134'
p2815
S'HMDB60243'
p2816
sS'cpd:C00135'
p2817
S'HMDB00177'
p2818
sS'cpd:C00136'
p2819
VPUBCHEM3436
p2820
sS'cpd:C00137'
p2821
S'HMDB00211'
p2822
sS'cpd:C00130'
p2823
S'HMDB00175'
p2824
sS'cpd:C00131'
p2825
S'HMDB01532'
p2826
sS'gl:G00098'
p2827
S'glG00098'
p2828
sS'gl:G00099'
p2829
S'glG00099'
p2830
sS'gl:G00097'
p2831
S'glG00097'
p2832
sS'gl:G00094'
p2833
S'glG00094'
p2834
sS'gl:G00095'
p2835
S'glG00095'
p2836
sS'gl:G00092'
p2837
S'glG00092'
p2838
sS'gl:G00093'
p2839
S'glG00093'
p2840
sS'gl:G00090'
p2841
S'glG00090'
p2842
sS'mmu:257872'
p2843
VOlfr835
p2844
sS'cpd:C14856'
p2845
S'HMDB60423'
p2846
sS'cpd:C14857'
p2847
S'HMDB60333'
p2848
sS'cpd:C14854'
p2849
VPUBCHEM17395852
p2850
sS'cpd:C04475'
p2851
VPUBCHEM7095
p2852
sS'cpd:C14855'
p2853
S'HMDB60391'
p2854
sS'cpd:C02189'
p2855
VPUBCHEM5260
p2856
sS'cpd:C02188'
p2857
VPUBCHEM5259
p2858
sS'cpd:C02987'
p2859
VPUBCHEM5896
p2860
sS'cpd:C15493'
p2861
S'HMDB02369'
p2862
sS'cpd:C15492'
p2863
S'HMDB11618'
p2864
sS'cpd:C04477'
p2865
S'HMDB01187'
p2866
sS'cpd:C02985'
p2867
VPUBCHEM5894
p2868
sS'mmu:494124'
p2869
VCalm5
p2870
sS'cpd:C00008'
p2871
S'HMDB01341'
p2872
sS'cpd:C02984'
p2873
VPUBCHEM5893
p2874
sS'mmu:226414'
p2875
VDars
p2876
sS'cpd:C00001'
p2877
S'HMDB02111'
p2878
sS'cpd:C00002'
p2879
S'HMDB00538'
p2880
sS'cpd:C00003'
p2881
S'HMDB00902'
p2882
sS'cpd:C00005'
p2883
VPUBCHEM3307
p2884
sS'cpd:C00006'
p2885
S'HMDB00217'
p2886
sS'mmu:226413'
p2887
VLct
p2888
sS'mmu:257909'
p2889
VOlfr735
p2890
sS'mmu:16866'
p2891
VLhb
p2892
sS'mmu:257902'
p2893
VOlfr704
p2894
sS'mmu:257900'
p2895
VOlfr1024
p2896
sS'mmu:257904'
p2897
VOlfr294
p2898
sS'mmu:258160'
p2899
VOlfr685
p2900
sS'cpd:C05744'
p2901
VPUBCHEM8039
p2902
sS'cpd:C05745'
p2903
VPUBCHEM8040
p2904
sS'cpd:C05746'
p2905
VPUBCHEM8041
p2906
sS'cpd:C05747'
p2907
VPUBCHEM8042
p2908
sS'cpd:C05748'
p2909
VPUBCHEM8043
p2910
sS'cpd:C05749'
p2911
VPUBCHEM8044
p2912
sS'mmu:751549'
p2913
VMir92-1
p2914
sS'mmu:258899'
p2915
VOlfr1214
p2916
sS'mmu:258898'
p2917
VOlfr1205
p2918
sS'mmu:257985'
p2919
VOlfr782
p2920
sS'mmu:258895'
p2921
VOlfr1216
p2922
sS'mmu:258894'
p2923
VOlfr1223
p2924
sS'mmu:258897'
p2925
VOlfr1201
p2926
sS'mmu:258896'
p2927
VOlfr1206
p2928
sS'mmu:258891'
p2929
VOlfr1302
p2930
sS'mmu:258890'
p2931
VOlfr1297
p2932
sS'mmu:258893'
p2933
VOlfr1225
p2934
sS'cpd:C19490'
p2935
S'HMDB60517'
p2936
sS'mmu:12296'
p2937
VCacnb2
p2938
sS'mmu:12297'
p2939
VCacnb3
p2940
sS'mmu:12292'
p2941
VCacna1s
p2942
sS'mmu:12290'
p2943
VCacna1e
p2944
sS'mmu:12291'
p2945
VCacna1g
p2946
sS'mmu:26904'
p2947
VSh2d1b1
p2948
sS'cpd:C03366'
p2949
S'HMDB59600'
p2950
sS'mmu:258871'
p2951
VOlfr898
p2952
sS'mmu:243996'
p2953
V4933405O20Rik
p2954
sS'mmu:257950'
p2955
VOlfr1039
p2956
sS'cpd:C06197'
p2957
VPUBCHEM8447
p2958
sS'cpd:C00319'
p2959
VPUBCHEM3613
p2960
sS'cpd:C00314'
p2961
S'HMDB00239'
p2962
sS'cpd:C00315'
p2963
S'HMDB01257'
p2964
sS'cpd:C00310'
p2965
S'HMDB03371'
p2966
sS'cpd:C00311'
p2967
S'HMDB00193'
p2968
sS'cpd:C00312'
p2969
VPUBCHEM3606
p2970
sS'mmu:11855'
p2971
VArhgap5
p2972
sS'mmu:258306'
p2973
VOlfr1337
p2974
sS'mmu:258301'
p2975
VOlfr1340
p2976
sS'mmu:404710'
p2977
VIqgap3
p2978
sS'mmu:258303'
p2979
VOlfr518
p2980
sS'mmu:258302'
p2981
VOlfr420
p2982
sS'mmu:258868'
p2983
VOlfr894
p2984
sS'mmu:258690'
p2985
VOlfr1469
p2986
sS'mmu:258309'
p2987
VOlfr657
p2988
sS'cpd:C14453'
p2989
VPUBCHEM17395453
p2990
sS'mmu:404346'
p2991
VOlfr322
p2992
sS'mmu:258097'
p2993
VOlfr1500
p2994
sS'mmu:12039'
p2995
VBckdha
p2996
sS'mmu:258456'
p2997
VOlfr1196
p2998
sS'cpd:C02763'
p2999
S'HMDB12225'
p3000
sS'mmu:258754'
p3001
VOlfr214
p3002
sS'cpd:C16038'
p3003
S'HMDB41008'
p3004
sS'mmu:12035'
p3005
VBcat1
p3006
sS'cpd:C05697'
p3007
VPUBCHEM8004
p3008
sS'cpd:C12144'
p3009
S'HMDB04610'
p3010
sS'cpd:C12145'
p3011
VPUBCHEM14292
p3012
sS'cpd:C05293'
p3013
S'HMDB06770'
p3014
sS'mmu:258752'
p3015
VOlfr583
p3016
sS'cpd:C02163'
p3017
VPUBCHEM5239
p3018
sS'cpd:C02165'
p3019
S'HMDB01085'
p3020
sS'cpd:C05698'
p3021
VPUBCHEM8005
p3022
sS'cpd:C02166'
p3023
S'HMDB01198'
p3024
sS'mmu:258767'
p3025
VOlfr1176
p3026
sS'mmu:258766'
p3027
VOlfr259
p3028
sS'mmu:258941'
p3029
VOlfr354
p3030
sS'mmu:258940'
p3031
VOlfr346
p3032
sS'mmu:258947'
p3033
VOlfr345
p3034
sS'mmu:258762'
p3035
VOlfr1109
p3036
sS'mmu:258945'
p3037
VOlfr347
p3038
sS'mmu:258944'
p3039
VOlfr351
p3040
sS'mmu:258451'
p3041
VOlfr1215
p3042
sS'mmu:258949'
p3043
VOlfr338
p3044
sS'mmu:258751'
p3045
VOlfr608
p3046
sS'mmu:258768'
p3047
VOlfr1189
p3048
sS'mmu:258238'
p3049
VOlfr417
p3050
sS'mmu:27392'
p3051
VPign
p3052
sS'mmu:258549'
p3053
VOlfr798
p3054
sS'cpd:C00829'
p3055
S'HMDB29751'
p3056
sS'mmu:258231'
p3057
VOlfr1471
p3058
sS'mmu:258546'
p3059
VOlfr806
p3060
sS'mmu:258233'
p3061
VOlfr741
p3062
sS'mmu:258232'
p3063
VOlfr774
p3064
sS'cpd:C00822'
p3065
S'HMDB01229'
p3066
sS'mmu:258542'
p3067
VOlfr786
p3068
sS'mmu:258541'
p3069
VOlfr800
p3070
sS'mmu:258540'
p3071
VOlfr771
p3072
sS'mmu:258789'
p3073
VOlfr1271
p3074
sS'mmu:258788'
p3075
VOlfr1246
p3076
sS'cpd:C03758'
p3077
S'HMDB00073'
p3078
sS'cpd:C01107'
p3079
S'HMDB01343'
p3080
sS'mmu:258781'
p3081
VOlfr915
p3082
sS'mmu:258780'
p3083
VOlfr916
p3084
sS'mmu:258783'
p3085
VOlfr920
p3086
sS'mmu:258782'
p3087
VOlfr914
p3088
sS'mmu:258785'
p3089
VOlfr1230
p3090
sS'mmu:258784'
p3091
VOlfr1245
p3092
sS'mmu:258787'
p3093
VOlfr1248
p3094
sS'mmu:258786'
p3095
VOlfr1238
p3096
sS'mmu:320302'
p3097
VGlt28d2
p3098
sS'gl:G12396'
p3099
S'glG12396'
p3100
sS'cpd:C03595'
p3101
VPUBCHEM6386
p3102
sS'mmu:20355'
p3103
VSema4f
p3104
sS'mmu:17868'
p3105
VMybpc3
p3106
sS'mmu:258477'
p3107
VOlfr197
p3108
sS'mmu:23882'
p3109
VGadd45g
p3110
sS'cpd:C01996'
p3111
S'HMDB00895'
p3112
sS'cpd:C16756'
p3113
S'HMDB30479'
p3114
sS'mmu:20192'
p3115
VRyr3
p3116
sS'mmu:257929'
p3117
VOlfr299
p3118
sS'cpd:C16622'
p3119
S'HMDB60496'
p3120
sS'mmu:100039815'
p3121
VGm2436
p3122
sS'mmu:387356'
p3123
VTas2r131
p3124
sS'cpd:C06250'
p3125
VPUBCHEM8489
p3126
sS'mmu:258433'
p3127
VOlfr933
p3128
sS'mmu:258432'
p3129
VOlfr919
p3130
sS'mmu:258431'
p3131
VOlfr937
p3132
sS'mmu:258430'
p3133
VOlfr938
p3134
sS'mmu:258437'
p3135
VOlfr450
p3136
sS'mmu:258436'
p3137
VOlfr458
p3138
sS'mmu:258435'
p3139
VOlfr382
p3140
sS'mmu:258434'
p3141
VOlfr934
p3142
sS'mmu:258439'
p3143
VOlfr1309
p3144
sS'mmu:258438'
p3145
VOlfr215
p3146
sS'cpd:C01416'
p3147
VPUBCHEM4603
p3148
sS'cpd:C05297'
p3149
VPUBCHEM7681
p3150
sS'cpd:C01204'
p3151
VPUBCHEM4428
p3152
sS'cpd:C05279'
p3153
VPUBCHEM7666
p3154
sS'mmu:15006'
p3155
VH2-Q1
p3156
sS'mmu:15002'
p3157
VH2-Ob
p3158
sS'mmu:15000'
p3159
VH2-DMb2
p3160
sS'mmu:15001'
p3161
VH2-Oa
p3162
sS'cpd:C03681'
p3163
S'HMDB03759'
p3164
sS'cpd:C03680'
p3165
S'HMDB01014'
p3166
sS'mmu:387229'
p3167
VMir99a
p3168
sS'mmu:387228'
p3169
VMir30d
p3170
sS'cpd:C03684'
p3171
S'HMDB01195'
p3172
sS'cpd:C16137'
p3173
VPUBCHEM47205447
p3174
sS'mmu:387224'
p3175
VMir29c
p3176
sS'cpd:C16135'
p3177
VPUBCHEM47205445
p3178
sS'cpd:C03688'
p3179
VPUBCHEM6463
p3180
sS'mmu:387223'
p3181
VMir29b-1
p3182
sS'cpd:C16130'
p3183
VPUBCHEM47205440
p3184
sS'mmu:387175'
p3185
VMir15b
p3186
sS'mmu:387174'
p3187
VMir15a
p3188
sS'cpd:C06611'
p3189
S'HMDB60514'
p3190
sS'mmu:258570'
p3191
VOlfr1043
p3192
sS'mmu:387173'
p3193
VMir155
p3194
sS'mmu:100041579'
p3195
VGm20878
p3196
sS'mmu:387178'
p3197
VMir183
p3198
sS'cpd:C00956'
p3199
VPUBCHEM4207
p3200
sS'cpd:C00957'
p3201
S'HMDB01368'
p3202
sS'cpd:C00954'
p3203
S'HMDB00197'
p3204
sS'cpd:C00487'
p3205
VPUBCHEM3770
p3206
sS'mmu:100039707'
p3207
VMthfsl
p3208
sS'mmu:18708'
p3209
VPik3r1
p3210
sS'cpd:C00483'
p3211
S'HMDB00306'
p3212
sS'mmu:18707'
p3213
VPik3cd
p3214
sS'mmu:18705'
p3215
VPik3c2g
p3216
sS'cpd:C05356'
p3217
S'HMDB01193'
p3218
sS'cpd:C19561'
p3219
S'HMDB60419'
p3220
sS'cpd:C05273'
p3221
S'HMDB03946'
p3222
sS'cpd:C01330'
p3223
S'HMDB00588'
p3224
sS'mmu:258674'
p3225
VOlfr1427
p3226
sS'cpd:C02972'
p3227
VPUBCHEM5884
p3228
sS'cpd:C14840'
p3229
S'HMDB60446'
p3230
sS'cpd:C14845'
p3231
VPUBCHEM17395843
p3232
sS'cpd:C05276'
p3233
S'HMDB03949'
p3234
sS'cpd:C14847'
p3235
S'HMDB60381'
p3236
sS'mmu:12125'
p3237
VBcl2l11
p3238
sS'cpd:C14849'
p3239
S'HMDB60090'
p3240
sS'cpd:C14848'
p3241
S'HMDB60358'
p3242
sS'mmu:74468'
p3243
VHyal5
p3244
sS'mmu:258397'
p3245
VOlfr1303
p3246
sS'mmu:21956'
p3247
VTnnt2
p3248
sS'mmu:723837'
p3249
VMir32
p3250
sS'mmu:11596'
p3251
VAger
p3252
sS'mmu:268566'
p3253
VGphn
p3254
sS'mmu:56014'
p3255
VOlfr70
p3256
sS'mmu:56015'
p3257
VOlfr71
p3258
sS'cpd:C01054'
p3259
S'HMDB59621'
p3260
sS'cpd:C00559'
p3261
S'HMDB00101'
p3262
sS'cpd:C01051'
p3263
S'HMDB01086'
p3264
sS'cpd:C00550'
p3265
VPUBCHEM3831
p3266
sS'mmu:14198'
p3267
VFhit
p3268
sS'cpd:C00555'
p3269
S'HMDB60247'
p3270
sS'mmu:72361'
p3271
VCes2g
p3272
sS'mmu:258134'
p3273
VOlfr426
p3274
sS'cpd:C19559'
p3275
VPUBCHEM124490231
p3276
sS'mmu:14179'
p3277
VFgf8
p3278
sS'mmu:230597'
p3279
VZfyve9
p3280
sS'mmu:544748'
p3281
VOlfr765
p3282
sS'cpd:C03021'
p3283
VPUBCHEM5927
p3284
sS'mmu:14174'
p3285
VFgf3
p3286
sS'cpd:C03028'
p3287
S'HMDB01512'
p3288
sS'cpd:C00637'
p3289
S'HMDB01190'
p3290
sS'cpd:C00636'
p3291
VPUBCHEM3909
p3292
sS'mmu:14999'
p3293
VH2-DMb1
p3294
sS'cpd:C03033'
p3295
VPUBCHEM5938
p3296
sS'cpd:C00632'
p3297
S'HMDB01476'
p3298
sS'cpd:C00631'
p3299
S'HMDB03391'
p3300
sS'cpd:C00630'
p3301
VPUBCHEM3903
p3302
sS'mmu:258135'
p3303
VOlfr597
p3304
sS'mmu:21825'
p3305
VThbs1
p3306
sS'mmu:14990'
p3307
VH2-M2
p3308
sS'mmu:14997'
p3309
VH2-M9
p3310
sS'cpd:C00639'
p3311
VPUBCHEM3912
p3312
sS'cpd:C00638'
p3313
VPUBCHEM3911
p3314
sS'mmu:258393'
p3315
VOlfr1325
p3316
sS'cpd:C05828'
p3317
S'HMDB02820'
p3318
sS'mmu:240672'
p3319
VDusp5
p3320
sS'cpd:C12448'
p3321
S'HMDB06406'
p3322
sS'cpd:C05823'
p3323
VPUBCHEM8118
p3324
sS'cpd:C00735'
p3325
VPUBCHEM3998
p3326
sS'cpd:C05827'
p3327
S'HMDB04181'
p3328
sS'mmu:67268'
p3329
VMyl12a
p3330
sS'cpd:C00129'
p3331
S'HMDB01347'
p3332
sS'cpd:C00128'
p3333
S'HMDB01176'
p3334
sS'cpd:C20859'
p3335
S'cpdC20859'
p3336
sS'mmu:225825'
p3337
VCd226
p3338
sS'mmu:54652'
p3339
VCacna1f
p3340
sS'mmu:258726'
p3341
VOlfr599
p3342
sS'cpd:C00123'
p3343
S'HMDB00687'
p3344
sS'cpd:C00122'
p3345
S'HMDB00134'
p3346
sS'cpd:C00121'
p3347
S'HMDB00283'
p3348
sS'cpd:C00120'
p3349
S'HMDB00030'
p3350
sS'cpd:C00127'
p3351
VPUBCHEM3427
p3352
sS'cpd:C00124'
p3353
VPUBCHEM3424
p3354
sS'cpd:C00620'
p3355
S'HMDB01489'
p3356
sS'cpd:C04483'
p3357
S'HMDB00626'
p3358
sS'cpd:C04487'
p3359
VPUBCHEM7106
p3360
sS'mmu:268782'
p3361
VAgxt2
p3362
sS'mmu:12914'
p3363
VCrebbp
p3364
sS'mmu:12913'
p3365
VCreb3
p3366
sS'mmu:12912'
p3367
VCreb1
p3368
sS'cpd:C04242'
p3369
S'HMDB60394'
p3370
sS'mmu:259096'
p3371
VOlfr561
p3372
sS'mmu:18459'
p3373
VPabpc2
p3374
sS'cpd:C04246'
p3375
VPUBCHEM6911
p3376
sS'mmu:258725'
p3377
VOlfr1095
p3378
sS'cpd:C04244'
p3379
S'HMDB02065'
p3380
sS'mmu:735252'
p3381
VMir181a-1
p3382
sS'cpd:C19604'
p3383
S'HMDB60422'
p3384
sS'mmu:219019'
p3385
VOlfr743
p3386
sS'cpd:C03263'
p3387
S'HMDB01261'
p3388
sS'mmu:634104'
p3389
VOlfr287
p3390
sS'gl:G00042'
p3391
S'glG00042'
p3392
sS'gl:G00044'
p3393
S'glG00044'
p3394
sS'gl:G00047'
p3395
S'glG00047'
p3396
sS'cpd:C00628'
p3397
S'HMDB00152'
p3398
sS'cpd:C07909'
p3399
VPUBCHEM10111
p3400
sS'cpd:C00996'
p3401
VPUBCHEM4242
p3402
sS'cpd:C03205'
p3403
S'HMDB00016'
p3404
sS'mmu:381022'
p3405
VKmt2d
p3406
sS'cpd:C03201'
p3407
VPUBCHEM6078
p3408
sS'mmu:230721'
p3409
VPabpc4
p3410
sS'mmu:100042150'
p3411
VNrg2
p3412
sS'cpd:C00019'
p3413
VPUBCHEM3321
p3414
sS'cpd:C00018'
p3415
S'HMDB01491'
p3416
sS'cpd:C07447'
p3417
S'HMDB60428'
p3418
sS'cpd:C00015'
p3419
S'HMDB00295'
p3420
sS'cpd:C00014'
p3421
S'HMDB00051'
p3422
sS'cpd:C00012'
p3423
VPUBCHEM3314
p3424
sS'cpd:C00011'
p3425
S'HMDB01967'
p3426
sS'cpd:C00010'
p3427
S'HMDB01423'
p3428
sS'mmu:257919'
p3429
VOlfr467
p3430
sS'cpd:C16612'
p3431
S'HMDB60462'
p3432
sS'cpd:C04432'
p3433
VPUBCHEM7063
p3434
sS'cpd:C04062'
p3435
S'HMDB06234'
p3436
sS'cpd:C04063'
p3437
S'HMDB06235'
p3438
sS'mmu:257910'
p3439
VOlfr671
p3440
sS'mmu:257913'
p3441
VOlfr141
p3442
sS'mmu:257912'
p3443
VOlfr948
p3444
sS'mmu:257915'
p3445
VOlfr1016
p3446
sS'mmu:257917'
p3447
VOlfr314
p3448
sS'mmu:257916'
p3449
VOlfr1031
p3450
sS'mmu:258154'
p3451
VOlfr1029
p3452
sS'cpd:C05756'
p3453
VPUBCHEM8051
p3454
sS'cpd:C05755'
p3455
VPUBCHEM8050
p3456
sS'cpd:C05754'
p3457
VPUBCHEM8049
p3458
sS'cpd:C05753'
p3459
VPUBCHEM8048
p3460
sS'cpd:C05752'
p3461
VPUBCHEM8047
p3462
sS'mmu:236509'
p3463
VOlfr366
p3464
sS'mmu:258153'
p3465
VOlfr412
p3466
sS'mmu:258158'
p3467
VOlfr169
p3468
sS'cpd:C05759'
p3469
VPUBCHEM8054
p3470
sS'cpd:C05758'
p3471
VPUBCHEM8053
p3472
sS'cpd:C04677'
p3473
S'HMDB01517'
p3474
sS'cpd:C00070'
p3475
VPUBCHEM3370
p3476
sS'mmu:18438'
p3477
VP2rx4
p3478
sS'cpd:C06790'
p3479
S'HMDB29593'
p3480
sS'mmu:18439'
p3481
VP2rx7
p3482
sS'cpd:C03373'
p3483
S'HMDB01235'
p3484
sS'cpd:C03372'
p3485
VPUBCHEM6207
p3486
sS'mmu:102637973'
p3487
VGm34653
p3488
sS'mmu:404549'
p3489
VIfna14
p3490
sS'mmu:26912'
p3491
VGcat
p3492
sS'mmu:436002'
p3493
VOlfr243
p3494
sS'cpd:C00074'
p3495
S'HMDB00263'
p3496
sS'cpd:C00301'
p3497
VPUBCHEM3595
p3498
sS'cpd:C00300'
p3499
S'HMDB00064'
p3500
sS'cpd:C00307'
p3501
S'HMDB01413'
p3502
sS'mmu:107272'
p3503
VPsat1
p3504
sS'cpd:C00305'
p3505
S'HMDB00547'
p3506
sS'cpd:C00076'
p3507
S'HMDB00464'
p3508
sS'mmu:100049549'
p3509
VMir181d
p3510
sS'cpd:C16582'
p3511
S'HMDB60670'
p3512
sS'mmu:404327'
p3513
VOlfr1113
p3514
sS'cpd:C18041'
p3515
S'HMDB60408'
p3516
sS'mmu:12005'
p3517
VAxin1
p3518
sS'mmu:20563'
p3519
VSlit2
p3520
sS'mmu:12000'
p3521
VAvpr2
p3522
sS'cpd:C05684'
p3523
S'HMDB11119'
p3524
sS'cpd:C05686'
p3525
S'HMDB04112'
p3526
sS'cpd:C19313'
p3527
VPUBCHEM124489985
p3528
sS'mmu:258406'
p3529
VOlfr462
p3530
sS'cpd:C05689'
p3531
S'HMDB04113'
p3532
sS'cpd:C05688'
p3533
S'HMDB03288'
p3534
sS'mmu:258407'
p3535
VOlfr464
p3536
sS'mmu:258937'
p3537
VOlfr167
p3538
sS'mmu:258934'
p3539
VOlfr802
p3540
sS'mmu:258935'
p3541
VOlfr790
p3542
sS'mmu:258932'
p3543
VOlfr791
p3544
sS'mmu:258933'
p3545
VOlfr796
p3546
sS'mmu:258930'
p3547
VOlfr808
p3548
sS'mmu:258931'
p3549
VOlfr807
p3550
sS'mmu:258290'
p3551
VOlfr1143
p3552
sS'mmu:16451'
p3553
VJak1
p3554
sS'mmu:259151'
p3555
VOlfr1037
p3556
sS'cpd:C16388'
p3557
VPUBCHEM47205686
p3558
sS'cpd:C16389'
p3559
VPUBCHEM47205687
p3560
sS'mmu:258206'
p3561
VOlfr1264
p3562
sS'mmu:258207'
p3563
VOlfr452
p3564
sS'cpd:C00831'
p3565
VPUBCHEM4089
p3566
sS'mmu:258201'
p3567
VOlfr538
p3568
sS'mmu:258203'
p3569
VOlfr1178
p3570
sS'cpd:C01836'
p3571
VPUBCHEM4955
p3572
sS'cpd:C04805'
p3573
S'HMDB11134'
p3574
sS'mmu:11449'
p3575
VChrng
p3576
sS'cpd:C01832'
p3577
VPUBCHEM4951
p3578
sS'cpd:C03765'
p3579
S'HMDB03767'
p3580
sS'mmu:66786'
p3581
VOlfr701
p3582
sS'mmu:12647'
p3583
VChat
p3584
sS'cpd:C03564'
p3585
S'HMDB06875'
p3586
sS'mmu:74729'
p3587
VSetmar
p3588
sS'mmu:258338'
p3589
VOlfr1259
p3590
sS'mmu:258339'
p3591
VOlfr1269
p3592
sS'mmu:258330'
p3593
VOlfr1274-ps
p3594
sS'mmu:258331'
p3595
VOlfr1330
p3596
sS'mmu:258840'
p3597
VOlfr1097
p3598
sS'mmu:258333'
p3599
VOlfr893
p3600
sS'mmu:258334'
p3601
VOlfr1396
p3602
sS'mmu:258335'
p3603
VOlfr374
p3604
sS'mmu:258336'
p3605
VOlfr77
p3606
sS'mmu:258845'
p3607
VOlfr1161
p3608
sS'mmu:666513'
p3609
VGm11787
p3610
sS'mmu:546487'
p3611
VOlfr766
p3612
sS'mmu:75410'
p3613
VKmt2b
p3614
sS'mmu:258446'
p3615
VOlfr1231
p3616
sS'mmu:258447'
p3617
VOlfr1241
p3618
sS'mmu:258444'
p3619
VOlfr694
p3620
sS'mmu:258445'
p3621
VOlfr693
p3622
sS'mmu:258442'
p3623
VOlfr1314
p3624
sS'mmu:258443'
p3625
VOlfr164
p3626
sS'mmu:258440'
p3627
VOlfr1317
p3628
sS'mmu:258441'
p3629
VOlfr1310
p3630
sS'cpd:C01943'
p3631
VPUBCHEM5047
p3632
sS'cpd:C01233'
p3633
VPUBCHEM4454
p3634
sS'cpd:C01235'
p3635
VPUBCHEM4456
p3636
sS'mmu:258448'
p3637
VOlfr92
p3638
sS'mmu:56860'
p3639
VOlfr690
p3640
sS'cpd:C05223'
p3641
VPUBCHEM7620
p3642
sS'mmu:20021'
p3643
VPolr2c
p3644
sS'mmu:15039'
p3645
VH2-T22
p3646
sS'mmu:22137'
p3647
VTtk
p3648
sS'mmu:387210'
p3649
VMir214
p3650
sS'mmu:20707'
p3651
VSerpinb9c
p3652
sS'mmu:20706'
p3653
VSerpinb9b
p3654
sS'mmu:20700'
p3655
VSerpina1a
p3656
sS'mmu:387216'
p3657
VMir23a
p3658
sS'mmu:387218'
p3659
VMir26a-1
p3660
sS'mmu:57317'
p3661
VSrsf4
p3662
sS'mmu:20709'
p3663
VSerpinb9f
p3664
sS'mmu:20708'
p3665
VSerpinb6b
p3666
sS'cpd:C00499'
p3667
S'HMDB01209'
p3668
sS'cpd:C00492'
p3669
VPUBCHEM3775
p3670
sS'cpd:C00491'
p3671
S'HMDB00192'
p3672
sS'mmu:228812'
p3673
VPigu
p3674
sS'cpd:C00940'
p3675
S'HMDB01552'
p3676
sS'mmu:259007'
p3677
VOlfr395
p3678
sS'cpd:C00942'
p3679
S'HMDB01314'
p3680
sS'mmu:19159'
p3681
VCyth3
p3682
sS'cpd:C02412'
p3683
VPUBCHEM5445
p3684
sS'mmu:192786'
p3685
VRapgef6
p3686
sS'cpd:C01301'
p3687
S'HMDB03533'
p3688
sS'cpd:C14874'
p3689
S'HMDB60479'
p3690
sS'cpd:C02960'
p3691
VPUBCHEM5876
p3692
sS'cpd:C14870'
p3693
S'HMDB60344'
p3694
sS'cpd:C14871'
p3695
S'HMDB60507'
p3696
sS'mmu:15101'
p3697
VH60a
p3698
sS'mmu:15108'
p3699
VHsd17b10
p3700
sS'cpd:C11150'
p3701
S'HMDB42048'
p3702
sS'cpd:C18125'
p3703
VPUBCHEM96024342
p3704
sS'cpd:C18129'
p3705
VPUBCHEM96024346
p3706
sS'cpd:C01042'
p3707
S'HMDB00812'
p3708
sS'mmu:69142'
p3709
VCd209f
p3710
sS'cpd:C01040'
p3711
S'HMDB03466'
p3712
sS'cpd:C01044'
p3713
S'HMDB60495'
p3714
sS'mmu:14184'
p3715
VFgfr3
p3716
sS'mmu:18605'
p3717
VEnpp1
p3718
sS'mmu:19739'
p3719
VRgs9
p3720
sS'cpd:C14773'
p3721
S'HMDB02311'
p3722
sS'mmu:19730'
p3723
VRalgds
p3724
sS'cpd:C00544'
p3725
S'HMDB00130'
p3726
sS'cpd:C00547'
p3727
S'HMDB00216'
p3728
sS'cpd:C00546'
p3729
S'HMDB01167'
p3730
sS'mmu:14343'
p3731
VFut1
p3732
sS'mmu:387140'
p3733
VMir21a
p3734
sS'cpd:C20120'
p3735
VPUBCHEM135626580
p3736
sS'mmu:387143'
p3737
VMir101a
p3738
sS'mmu:387144'
p3739
VMir10b
p3740
sS'mmu:387145'
p3741
VMir126a
p3742
sS'mmu:387147'
p3743
VMir128-1
p3744
sS'mmu:14168'
p3745
VFgf13
p3746
sS'cpd:C18239'
p3747
S'HMDB59639'
p3748
sS'cpd:C18231'
p3749
VPUBCHEM103061413
p3750
sS'mmu:18193'
p3751
VNsd1
p3752
sS'mmu:231051'
p3753
VKmt2c
p3754
sS'mmu:15965'
p3755
VIfna2
p3756
sS'cpd:C11537'
p3757
VPUBCHEM13704
p3758
sS'mmu:17880'
p3759
VMyh11
p3760
sS'mmu:27401'
p3761
VSkp2
p3762
sS'mmu:208266'
p3763
VDot1l
p3764
sS'mmu:15969'
p3765
VIfna6
p3766
sS'mmu:15968'
p3767
VIfna5
p3768
sS'mmu:258929'
p3769
VOlfr799
p3770
sS'mmu:257978'
p3771
VOlfr1322
p3772
sS'mmu:230459'
p3773
VCyp2j13
p3774
sS'mmu:100040233'
p3775
VGm10334
p3776
sS'mmu:258575'
p3777
VOlfr1046
p3778
sS'gl:G00126'
p3779
S'glG00126'
p3780
sS'gl:G00127'
p3781
S'glG00127'
p3782
sS'gl:G00124'
p3783
S'glG00124'
p3784
sS'gl:G00125'
p3785
S'glG00125'
p3786
sS'gl:G00123'
p3787
S'glG00123'
p3788
sS'gl:G00120'
p3789
S'glG00120'
p3790
sS'mmu:16818'
p3791
VLck
p3792
sS'mmu:18999'
p3793
VPou5f1
p3794
sS'gl:G00129'
p3795
S'glG00129'
p3796
sS'cpd:C00158'
p3797
S'HMDB00094'
p3798
sS'cpd:C00159'
p3799
S'HMDB00169'
p3800
sS'cpd:C00157'
p3801
VPUBCHEM3457
p3802
sS'cpd:C00154'
p3803
S'HMDB01338'
p3804
sS'cpd:C00155'
p3805
VPUBCHEM3455
p3806
sS'cpd:C00152'
p3807
S'HMDB00168'
p3808
sS'cpd:C00153'
p3809
S'HMDB01406'
p3810
sS'cpd:C00151'
p3811
VPUBCHEM3451
p3812
sS'cpd:C04494'
p3813
S'HMDB60480'
p3814
sS'mmu:258147'
p3815
VOlfr675
p3816
sS'mmu:12902'
p3817
VCr2
p3818
sS'mmu:258352'
p3819
VOlfr692
p3820
sS'mmu:18323'
p3821
VOlfr25
p3822
sS'cpd:C04257'
p3823
VPUBCHEM6922
p3824
sS'mmu:320452'
p3825
VP4ha3
p3826
sS'mmu:14765'
p3827
VGpr50
p3828
sS'cpd:C00450'
p3829
S'HMDB59657'
p3830
sS'mmu:17260'
p3831
VMef2c
p3832
sS'mmu:17261'
p3833
VMef2d
p3834
sS'gl:G00058'
p3835
S'glG00058'
p3836
sS'mmu:258603'
p3837
VOlfr972
p3838
sS'mmu:270049'
p3839
VGalntl6
p3840
sS'gl:G00052'
p3841
S'glG00052'
p3842
sS'cpd:C02362'
p3843
S'HMDB60350'
p3844
sS'gl:G00050'
p3845
S'glG00050'
p3846
sS'gl:G00051'
p3847
S'glG00051'
p3848
sS'gl:G00056'
p3849
S'glG00056'
p3850
sS'gl:G00057'
p3851
S'glG00057'
p3852
sS'gl:G00054'
p3853
S'glG00054'
p3854
sS'gl:G00055'
p3855
S'glG00055'
p3856
sS'mmu:258606'
p3857
VOlfr229
p3858
sS'mmu:433449'
p3859
VOlfr1197
p3860
sS'mmu:23879'
p3861
VFxr2
p3862
sS'mmu:258961'
p3863
VOlfr631
p3864
sS'mmu:544791'
p3865
VMyh13
p3866
sS'mmu:76654'
p3867
VUpp2
p3868
sS'mmu:233904'
p3869
VSetd1a
p3870
sS'mmu:12830'
p3871
VCol4a5
p3872
sS'cpd:C04076'
p3873
S'HMDB59595'
p3874
sS'mmu:16842'
p3875
VLef1
p3876
sS'mmu:230639'
p3877
VCyp4a29
p3878
sS'mmu:12835'
p3879
VCol6a3
p3880
sS'mmu:257926'
p3881
VOlfr544
p3882
sS'mmu:12839'
p3883
VCol9a1
p3884
sS'cpd:C04079'
p3885
S'HMDB06834'
p3886
sS'mmu:257921'
p3887
VOlfr1229
p3888
sS'cpd:C02094'
p3889
VPUBCHEM5178
p3890
sS'mmu:723836'
p3891
VMir30e
p3892
sS'cpd:C02090'
p3893
S'HMDB60520'
p3894
sS'mmu:83814'
p3895
VNedd4l
p3896
sS'mmu:211666'
p3897
VMgst2
p3898
sS'cpd:C06899'
p3899
S'HMDB60451'
p3900
sS'cpd:C05127'
p3901
S'HMDB00898'
p3902
sS'mmu:259098'
p3903
VOlfr606
p3904
sS'mmu:259099'
p3905
VOlfr676
p3906
sS'cpd:C20640'
p3907
VPUBCHEM172232364
p3908
sS'cpd:C15520'
p3909
S'HMDB06280'
p3910
sS'mmu:259095'
p3911
VOlfr568
p3912
sS'mmu:259092'
p3913
VOlfr569
p3914
sS'mmu:259093'
p3915
VOlfr572
p3916
sS'mmu:259091'
p3917
VOlfr585
p3918
sS'cpd:C00376'
p3919
S'HMDB01358'
p3920
sS'mmu:29849'
p3921
VOlfr159
p3922
sS'mmu:29845'
p3923
VOlfr155
p3924
sS'mmu:29846'
p3925
VOlfr156
p3926
sS'cpd:C00378'
p3927
S'HMDB00235'
p3928
sS'cpd:C00379'
p3929
VPUBCHEM3669
p3930
sS'cpd:C04717'
p3931
S'HMDB03871'
p3932
sS'gl:G10611'
p3933
S'glG10611'
p3934
sS'mmu:258056'
p3935
VOlfr533
p3936
sS'cpd:C06054'
p3937
S'HMDB06801'
p3938
sS'mmu:12015'
p3939
VBad
p3940
sS'mmu:258943'
p3941
VOlfr353
p3942
sS'mmu:117600'
p3943
VSrgap1
p3944
sS'cpd:C02140'
p3945
S'HMDB01547'
p3946
sS'mmu:57813'
p3947
VTk2
p3948
sS'cpd:C03410'
p3949
VPUBCHEM6239
p3950
sS'mmu:13837'
p3951
VEpha3
p3952
sS'mmu:258925'
p3953
VOlfr20
p3954
sS'mmu:258924'
p3955
VOlfr376
p3956
sS'cpd:C00208'
p3957
VPUBCHEM3508
p3958
sS'mmu:258921'
p3959
VOlfr1188
p3960
sS'mmu:258920'
p3961
VOlfr1180
p3962
sS'mmu:258922'
p3963
VOlfr267
p3964
sS'mmu:258627'
p3965
VOlfr1504
p3966
sS'mmu:19218'
p3967
VPtger3
p3968
sS'cpd:C00206'
p3969
VPUBCHEM3506
p3970
sS'mmu:258277'
p3971
VOlfr281
p3972
sS'cpd:C00800'
p3973
VPUBCHEM4058
p3974
sS'cpd:C06128'
p3975
VPUBCHEM8385
p3976
sS'mmu:258216'
p3977
VOlfr1034
p3978
sS'mmu:258218'
p3979
VOlfr102
p3980
sS'cpd:C06125'
p3981
VPUBCHEM8382
p3982
sS'mmu:23972'
p3983
VPapss2
p3984
sS'mmu:23971'
p3985
VPapss1
p3986
sS'cpd:C06126'
p3987
VPUBCHEM8383
p3988
sS'cpd:C03772'
p3989
S'HMDB03769'
p3990
sS'cpd:C01829'
p3991
S'HMDB00248'
p3992
sS'mmu:723890'
p3993
VMir181b-1
p3994
sS'mmu:404329'
p3995
VOlfr1173
p3996
sS'mmu:14421'
p3997
VB4galnt1
p3998
sS'cpd:C05787'
p3999
VPUBCHEM8082
p4000
sS'mmu:57251'
p4001
VOlfr870
p4002
sS'mmu:57250'
p4003
VOlfr653
p4004
sS'mmu:257961'
p4005
VOlfr1432
p4006
sS'mmu:258859'
p4007
VOlfr161
p4008
sS'mmu:258858'
p4009
VOlfr371
p4010
sS'mmu:100434'
p4011
VSlc44a1
p4012
sS'mmu:258329'
p4013
VOlfr135
p4014
sS'mmu:258328'
p4015
VOlfr954
p4016
sS'mmu:258851'
p4017
VOlfr1339
p4018
sS'cpd:C16300'
p4019
S'HMDB06547'
p4020
sS'mmu:258853'
p4021
VOlfr982
p4022
sS'mmu:258852'
p4023
VOlfr1341
p4024
sS'mmu:258323'
p4025
VOlfr943
p4026
sS'mmu:258854'
p4027
VOlfr985
p4028
sS'mmu:258857'
p4029
VOlfr275
p4030
sS'mmu:258320'
p4031
VOlfr1232
p4032
sS'mmu:101502'
p4033
VHsd3b7
p4034
sS'cpd:C16643'
p4035
S'HMDB41936'
p4036
sS'mmu:258283'
p4037
VOlfr981
p4038
sS'mmu:258455'
p4039
VOlfr1204
p4040
sS'mmu:258454'
p4041
VOlfr1202
p4042
sS'mmu:258457'
p4043
VOlfr108
p4044
sS'cpd:C15650'
p4045
S'HMDB59620'
p4046
sS'cpd:C02554'
p4047
VPUBCHEM5555
p4048
sS'mmu:258450'
p4049
VOlfr1199
p4050
sS'mmu:258453'
p4051
VOlfr1209
p4052
sS'mmu:258850'
p4053
VOlfr295
p4054
sS'cpd:C01227'
p4055
VPUBCHEM4449
p4056
sS'cpd:C01953'
p4057
VPUBCHEM5056
p4058
sS'mmu:258459'
p4059
VOlfr1388
p4060
sS'mmu:258458'
p4061
VOlfr165
p4062
sS'cpd:C01220'
p4063
S'HMDB00968'
p4064
sS'mmu:15024'
p4065
VH2-T10
p4066
sS'mmu:258324'
p4067
VOlfr129
p4068
sS'mmu:230577'
p4069
VPars2
p4070
sS'cpd:C05258'
p4071
S'HMDB03932'
p4072
sS'cpd:C05259'
p4073
S'HMDB06402'
p4074
sS'cpd:C07056'
p4075
S'HMDB15197'
p4076
sS'mmu:258321'
p4077
VOlfr809
p4078
sS'mmu:20710'
p4079
VSerpinb9e
p4080
sS'mmu:20719'
p4081
VSerpinb6a
p4082
sS'cpd:C00978'
p4083
S'HMDB01238'
p4084
sS'mmu:17393'
p4085
VMmp7
p4086
sS'mmu:258881'
p4087
VOlfr1404
p4088
sS'mmu:100043203'
p4089
VGm10310
p4090
sS'mmu:100043200'
p4091
VOlfr819
p4092
sS'mmu:244187'
p4093
VOlfr684
p4094
sS'cpd:C05335'
p4095
VPUBCHEM7713
p4096
sS'cpd:C05337'
p4097
S'HMDB06292'
p4098
sS'cpd:C05336'
p4099
VPUBCHEM7714
p4100
sS'cpd:C05332'
p4101
S'HMDB60276'
p4102
sS'mmu:114671'
p4103
V4930444G20Rik
p4104
sS'cpd:C14869'
p4105
S'HMDB42049'
p4106
sS'cpd:C14868'
p4107
S'HMDB60504'
p4108
sS'mmu:235320'
p4109
VZbtb16
p4110
sS'cpd:C03958'
p4111
S'HMDB60080'
p4112
sS'cpd:C14863'
p4113
S'HMDB60343'
p4114
sS'cpd:C14861'
p4115
S'HMDB60506'
p4116
sS'cpd:C14866'
p4117
VPUBCHEM17395864
p4118
sS'cpd:C14865'
p4119
S'HMDB60342'
p4120
sS'cpd:C14864'
p4121
S'HMDB60505'
p4122
sS'cpd:C00143'
p4123
S'HMDB01533'
p4124
sS'cpd:C01530'
p4125
VPUBCHEM4692
p4126
sS'mmu:110511'
p4127
VOlfr153
p4128
sS'mmu:24013'
p4129
VGrk1
p4130
sS'mmu:668382'
p4131
VPabpc1l2b-ps
p4132
sS'mmu:667034'
p4133
VPnp2
p4134
sS'mmu:100039830'
p4135
VGm2446
p4136
sS'cpd:C03794'
p4137
S'HMDB59653'
p4138
sS'cpd:C01164'
p4139
S'HMDB00032'
p4140
sS'cpd:C01165'
p4141
S'HMDB02104'
p4142
sS'cpd:C11148'
p4143
VPUBCHEM13330
p4144
sS'mmu:75767'
p4145
VRab11fip1
p4146
sS'mmu:18610'
p4147
VPdyn
p4148
sS'cpd:C02839'
p4149
VPUBCHEM5781
p4150
sS'cpd:C01035'
p4151
S'HMDB03464'
p4152
sS'cpd:C00674'
p4153
VPUBCHEM3943
p4154
sS'mmu:57270'
p4155
VOlfr1508
p4156
sS'cpd:C15995'
p4157
VPUBCHEM47205306
p4158
sS'gl:G00020'
p4159
S'glG00020'
p4160
sS'mmu:235033'
p4161
VRdh8
p4162
sS'cpd:C00576'
p4163
S'HMDB01252'
p4164
sS'cpd:C00577'
p4165
VPUBCHEM3856
p4166
sS'cpd:C00570'
p4167
S'HMDB01564'
p4168
sS'gl:G00026'
p4169
S'glG00026'
p4170
sS'cpd:C02553'
p4171
VPUBCHEM5554
p4172
sS'mmu:387159'
p4173
VMir141
p4174
sS'cpd:C01380'
p4175
S'HMDB32262'
p4176
sS'mmu:387155'
p4177
VMir137
p4178
sS'mmu:387153'
p4179
VMir135a-1
p4180
sS'mmu:387151'
p4181
VMir133a-1
p4182
sS'mmu:27419'
p4183
VNaglu
p4184
sS'mmu:14402'
p4185
VGabrb3
p4186
sS'mmu:14404'
p4187
VGabre
p4188
sS'mmu:13681'
p4189
VEif4a1
p4190
sS'mmu:228966'
p4191
VPpp1r3d
p4192
sS'cpd:C01228'
p4193
S'HMDB59638'
p4194
sS'mmu:14151'
p4195
VFech
p4196
sS'cpd:C09844'
p4197
S'HMDB04472'
p4198
sS'cpd:C01780'
p4199
VPUBCHEM4910
p4200
sS'mmu:21844'
p4201
VTiam1
p4202
sS'mmu:15974'
p4203
VIfnab
p4204
sS'cpd:C11526'
p4205
S'HMDB06229'
p4206
sS'mmu:15970'
p4207
VIfna7
p4208
sS'cpd:C11522'
p4209
VPUBCHEM13690
p4210
sS'cpd:C01789'
p4211
VPUBCHEM4917
p4212
sS'cpd:C01143'
p4213
S'HMDB01090'
p4214
sS'mmu:258517'
p4215
VOlfr855
p4216
sS'cpd:C01146'
p4217
S'HMDB06938'
p4218
sS'cpd:C01144'
p4219
VPUBCHEM4375
p4220
sS'cpd:C04317'
p4221
VPUBCHEM6975
p4222
sS'mmu:104111'
p4223
VAdcy3
p4224
sS'mmu:104112'
p4225
VAcly
p4226
sS'cpd:C01149'
p4227
S'HMDB01345'
p4228
sS'mmu:18053'
p4229
VNgfr
p4230
sS'cpd:C01222'
p4231
S'HMDB01346'
p4232
sS'mmu:19054'
p4233
VPpp2r3d
p4234
sS'mmu:19057'
p4235
VPpp3cc
p4236
sS'cpd:C09332'
p4237
S'HMDB06825'
p4238
sS'mmu:258168'
p4239
VOlfr566
p4240
sS'mmu:243085'
p4241
VUgt2b35
p4242
sS'mmu:621628'
p4243
VCldn20
p4244
sS'cpd:C05122'
p4245
VPUBCHEM7544
p4246
sS'cpd:C09155'
p4247
VPUBCHEM11347
p4248
sS'cpd:C03170'
p4249
S'HMDB60521'
p4250
sS'cpd:C20877'
p4251
S'cpdC20877'
p4252
sS'cpd:C20876'
p4253
S'cpdC20876'
p4254
sS'cpd:C00149'
p4255
S'HMDB00156'
p4256
sS'cpd:C00148'
p4257
S'HMDB00162'
p4258
sS'mmu:245610'
p4259
VNxf3
p4260
sS'cpd:C00144'
p4261
S'HMDB01397'
p4262
sS'cpd:C00147'
p4263
S'HMDB00034'
p4264
sS'cpd:C11455'
p4265
S'HMDB01023'
p4266
sS'cpd:C00140'
p4267
S'HMDB00215'
p4268
sS'cpd:C20879'
p4269
S'cpdC20879'
p4270
sS'cpd:C20878'
p4271
S'cpdC20878'
p4272
sS'cpd:C00788'
p4273
S'HMDB00068'
p4274
sS'cpd:C00785'
p4275
S'HMDB00301'
p4276
sS'cpd:C00780'
p4277
S'HMDB00259'
p4278
sS'mmu:22095'
p4279
VTshr
p4280
sS'mmu:56215'
p4281
VAcin1
p4282
sS'mmu:18479'
p4283
VPak1
p4284
sS'gl:G00069'
p4285
S'glG00069'
p4286
sS'gl:G00068'
p4287
S'glG00068'
p4288
sS'gl:G00067'
p4289
S'glG00067'
p4290
sS'gl:G00066'
p4291
S'glG00066'
p4292
sS'mmu:210044'
p4293
VAdcy2
p4294
sS'gl:G00064'
p4295
S'glG00064'
p4296
sS'gl:G00063'
p4297
S'glG00063'
p4298
sS'gl:G00062'
p4299
S'glG00062'
p4300
sS'gl:G00060'
p4301
S'glG00060'
p4302
sS'cpd:C02679'
p4303
S'HMDB00638'
p4304
sS'mmu:17187'
p4305
VMax
p4306
sS'mmu:621603'
p4307
VAldh3b2
p4308
sS'gl:G10505'
p4309
S'glG10505'
p4310
sS'cpd:C15606'
p4311
S'HMDB12134'
p4312
sS'mmu:665095'
p4313
VCyp2j8
p4314
sS'mmu:77480'
p4315
VKidins220
p4316
sS'mmu:387206'
p4317
VMir210
p4318
sS'cpd:C01561'
p4319
S'HMDB03550'
p4320
sS'cpd:C04042'
p4321
VPUBCHEM6743
p4322
sS'cpd:C04043'
p4323
S'HMDB03791'
p4324
sS'mmu:238011'
p4325
VEnpp7
p4326
sS'mmu:257933'
p4327
VOlfr1089
p4328
sS'mmu:257932'
p4329
VOlfr332
p4330
sS'gl:G00119'
p4331
S'glG00119'
p4332
sS'gl:G00118'
p4333
S'glG00118'
p4334
sS'mmu:56858'
p4335
VOlfr749
p4336
sS'mmu:257936'
p4337
VOlfr1028
p4338
sS'cpd:C01762'
p4339
S'HMDB00299'
p4340
sS'gl:G00112'
p4341
S'glG00112'
p4342
sS'gl:G00111'
p4343
S'glG00111'
p4344
sS'mmu:258892'
p4345
VOlfr126
p4346
sS'gl:G00117'
p4347
S'glG00117'
p4348
sS'gl:G00116'
p4349
S'glG00116'
p4350
sS'gl:G00115'
p4351
S'glG00115'
p4352
sS'gl:G00114'
p4353
S'glG00114'
p4354
sS'mmu:259113'
p4355
VOlfr577
p4356
sS'mmu:723828'
p4357
VMir222
p4358
sS'mmu:387201'
p4359
VMir205
p4360
sS'mmu:723821'
p4361
VMir199a-2
p4362
sS'mmu:17451'
p4363
VMos
p4364
sS'mmu:723825'
p4365
VMir103-2
p4366
sS'mmu:723824'
p4367
VMir103-1
p4368
sS'mmu:723827'
p4369
VMir221
p4370
sS'cpd:C07086'
p4371
S'HMDB00209'
p4372
sS'mmu:58866'
p4373
VTreh
p4374
sS'mmu:258972'
p4375
VOlfr1239
p4376
sS'cpd:C00455'
p4377
S'HMDB00229'
p4378
sS'mmu:22068'
p4379
VTrpc6
p4380
sS'cpd:C00746'
p4381
VPUBCHEM4008
p4382
sS'mmu:226519'
p4383
VLamc1
p4384
sS'cpd:C06423'
p4385
S'HMDB00482'
p4386
sS'mmu:259089'
p4387
VOlfr571
p4388
sS'cpd:C15519'
p4389
VPUBCHEM17396511
p4390
sS'mmu:26424'
p4391
VNr5a2
p4392
sS'cpd:C06427'
p4393
S'HMDB01388'
p4394
sS'mmu:259085'
p4395
VOlfr610
p4396
sS'mmu:259084'
p4397
VOlfr615
p4398
sS'mmu:259087'
p4399
VOlfr622
p4400
sS'mmu:259086'
p4401
VOlfr609
p4402
sS'mmu:259081'
p4403
VOlfr643
p4404
sS'mmu:259080'
p4405
VOlfr619
p4406
sS'mmu:259083'
p4407
VOlfr547
p4408
sS'mmu:259082'
p4409
VOlfr1062
p4410
sS'cpd:C00365'
p4411
S'HMDB01409'
p4412
sS'cpd:C00364'
p4413
S'HMDB01227'
p4414
sS'cpd:C04633'
p4415
VPUBCHEM7222
p4416
sS'cpd:C00361'
p4417
S'HMDB00960'
p4418
sS'cpd:C00360'
p4419
S'HMDB00905'
p4420
sS'cpd:C00363'
p4421
S'HMDB01274'
p4422
sS'mmu:64898'
p4423
VLpin2
p4424
sS'cpd:C04688'
p4425
VPUBCHEM7269
p4426
sS'cpd:C00369'
p4427
VPUBCHEM3659
p4428
sS'mmu:53319'
p4429
VNxf1
p4430
sS'cpd:C14858'
p4431
S'HMDB60357'
p4432
sS'mmu:320910'
p4433
VItgb8
p4434
sS'mmu:53313'
p4435
VAtp2a3
p4436
sS'mmu:20541'
p4437
VSlc8a1
p4438
sS'mmu:93759'
p4439
VSirt1
p4440
sS'mmu:258918'
p4441
VOlfr1346
p4442
sS'mmu:258919'
p4443
VOlfr1179
p4444
sS'cpd:C02135'
p4445
S'HMDB01035'
p4446
sS'mmu:232889'
p4447
VPla2g4c
p4448
sS'mmu:258910'
p4449
VOlfr1280
p4450
sS'mmu:227333'
p4451
VDgkd
p4452
sS'mmu:258912'
p4453
VOlfr1378
p4454
sS'cpd:C03402'
p4455
VPUBCHEM6232
p4456
sS'mmu:258914'
p4457
VOlfr211
p4458
sS'mmu:258971'
p4459
VOlfr1243
p4460
sS'cpd:C03406'
p4461
S'HMDB00052'
p4462
sS'cpd:C00219'
p4463
S'HMDB01043'
p4464
sS'mmu:258139'
p4465
VOlfr591
p4466
sS'mmu:258136'
p4467
VOlfr517
p4468
sS'mmu:257662'
p4469
VOlfr1290
p4470
sS'cpd:C00213'
p4471
S'HMDB00271'
p4472
sS'cpd:C00212'
p4473
S'HMDB00050'
p4474
sS'cpd:C07535'
p4475
VPUBCHEM9738
p4476
sS'mmu:12722'
p4477
VClca3a1
p4478
sS'cpd:C00217'
p4479
S'HMDB03339'
p4480
sS'mmu:258266'
p4481
VOlfr247
p4482
sS'mmu:258595'
p4483
VOlfr698
p4484
sS'mmu:258264'
p4485
VOlfr747
p4486
sS'mmu:258597'
p4487
VOlfr716
p4488
sS'mmu:258590'
p4489
VOlfr702
p4490
sS'mmu:258263'
p4491
VOlfr117
p4492
sS'mmu:258592'
p4493
VOlfr697
p4494
sS'mmu:258261'
p4495
VOlfr325
p4496
sS'mmu:404473'
p4497
VOlfr1082
p4498
sS'mmu:258598'
p4499
VOlfr828
p4500
sS'cpd:C00819'
p4501
S'HMDB03423'
p4502
sS'cpd:C00818'
p4503
S'HMDB29881'
p4504
sS'mmu:233578'
p4505
VOlfr553
p4506
sS'cpd:C05791'
p4507
S'HMDB04158'
p4508
sS'cpd:C03547'
p4509
S'HMDB00115'
p4510
sS'cpd:C16094'
p4511
VPUBCHEM47205404
p4512
sS'cpd:C03541'
p4513
g4238
sS'mmu:258652'
p4514
VOlfr1131
p4515
sS'cpd:C16097'
p4516
VPUBCHEM47205407
p4517
sS'cpd:C16098'
p4518
VPUBCHEM47205408
p4519
sS'mmu:258977'
p4520
VOlfr1273-ps
p4521
sS'cpd:C02041'
p4522
VPUBCHEM5132
p4523
sS'cpd:C02047'
p4524
VPUBCHEM5136
p4525
sS'mmu:100040843'
p4526
VCyp4a32
p4527
sS'mmu:258680'
p4528
VOlfr1434
p4529
sS'mmu:258682'
p4530
VOlfr1436
p4531
sS'mmu:258683'
p4532
VOlfr262
p4533
sS'mmu:258684'
p4534
VOlfr1459
p4535
sS'mmu:258685'
p4536
VOlfr1472
p4537
sS'mmu:258686'
p4538
VOlfr1467
p4539
sS'mmu:258687'
p4540
VOlfr1454
p4541
sS'mmu:258688'
p4542
VOlfr1462
p4543
sS'mmu:258865'
p4544
VOlfr992
p4545
sS'mmu:258866'
p4546
VOlfr1008
p4547
sS'mmu:258867'
p4548
VOlfr131
p4549
sS'cpd:C01231'
p4550
S'HMDB03514'
p4551
sS'mmu:258861'
p4552
VOlfr763
p4553
sS'mmu:258862'
p4554
VOlfr770
p4555
sS'mmu:258863'
p4556
VOlfr768
p4557
sS'mmu:225600'
p4558
VPde6a
p4559
sS'mmu:258305'
p4560
VOlfr1356
p4561
sS'cpd:C16079'
p4562
VPUBCHEM47205389
p4563
sS'mmu:75471'
p4564
V1700009N14Rik
p4565
sS'mmu:258974'
p4566
VOlfr1233
p4567
sS'mmu:258460'
p4568
VOlfr1391
p4569
sS'mmu:258461'
p4570
VOlfr1381
p4571
sS'mmu:258462'
p4572
VOlfr1392
p4573
sS'mmu:258463'
p4574
VOlfr1393
p4575
sS'mmu:258464'
p4576
VOlfr1384
p4577
sS'mmu:258465'
p4578
VOlfr1387
p4579
sS'mmu:258466'
p4580
VOlfr1261
p4581
sS'mmu:258668'
p4582
VOlfr823
p4583
sS'mmu:258669'
p4584
VOlfr824
p4585
sS'mmu:258662'
p4586
VOlfr738
p4587
sS'mmu:258663'
p4588
VOlfr739
p4589
sS'mmu:258660'
p4590
VOlfr736
p4591
sS'mmu:258661'
p4592
VOlfr740
p4593
sS'mmu:258666'
p4594
VOlfr822
p4595
sS'mmu:258667'
p4596
VOlfr816
p4597
sS'cpd:C01962'
p4598
VPUBCHEM5063
p4599
sS'mmu:258300'
p4600
VOlfr1449
p4601
sS'mmu:258975'
p4602
VOlfr1234
p4603
sS'mmu:20723'
p4604
VSerpinb9
p4605
sS'cpd:C06254'
p4606
VPUBCHEM8493
p4607
sS'mmu:20726'
p4608
VSerpinb9d
p4609
sS'mmu:110696'
p4610
VH2-M10.3
p4611
sS'mmu:383243'
p4612
VOlfr128
p4613
sS'mmu:380997'
p4614
VCyp2d12
p4615
sS'mmu:15561'
p4616
VHtr3a
p4617
sS'mmu:545205'
p4618
VOlfr111
p4619
sS'mmu:258719'
p4620
VOlfr512
p4621
sS'mmu:15564'
p4622
VHtr5b
p4623
sS'cpd:C01312'
p4624
VPUBCHEM4527
p4625
sS'mmu:546770'
p4626
VOlfr1175-ps
p4627
sS'mmu:100559'
p4628
VUgt2b38
p4629
sS'cpd:C05300'
p4630
VPUBCHEM7684
p4631
sS'cpd:C05301'
p4632
S'HMDB00338'
p4633
sS'mmu:20927'
p4634
VAbcc8
p4635
sS'cpd:C03691'
p4636
VPUBCHEM6465
p4637
sS'mmu:320127'
p4638
VDgki
p4639
sS'cpd:C02430'
p4640
VPUBCHEM5457
p4641
sS'mmu:258656'
p4642
VOlfr365
p4643
sS'mmu:258039'
p4644
VOlfr728
p4645
sS'mmu:22084'
p4646
VTsc2
p4647
sS'cpd:C14818'
p4648
S'HMDB00692'
p4649
sS'cpd:C14819'
p4650
S'HMDB12943'
p4651
sS'cpd:C14814'
p4652
S'HMDB04694'
p4653
sS'mmu:19132'
p4654
VPrph
p4655
sS'cpd:C14813'
p4656
S'HMDB04693'
p4657
sS'cpd:C16679'
p4658
S'HMDB61095'
p4659
sS'mmu:328699'
p4660
VGabrr3
p4661
sS'mmu:217246'
p4662
VAce3
p4663
sS'cpd:C16677'
p4664
S'HMDB06254'
p4665
sS'gl:G00004'
p4666
S'glG00004'
p4667
sS'mmu:667772'
p4668
VMyh15
p4669
sS'cpd:C00999'
p4670
VPUBCHEM4245
p4671
sS'cpd:C01236'
p4672
S'HMDB01127'
p4673
sS'mmu:541307'
p4674
VCcl26
p4675
sS'cpd:C01024'
p4676
S'HMDB01137'
p4677
sS'mmu:18667'
p4678
VPgr
p4679
sS'cpd:C01026'
p4680
S'HMDB00092'
p4681
sS'cpd:C01879'
p4682
S'HMDB00267'
p4683
sS'cpd:C02336'
p4684
S'HMDB00660'
p4685
sS'cpd:C00524'
p4686
VPUBCHEM3807
p4687
sS'mmu:12036'
p4688
VBcat2
p4689
sS'mmu:22423'
p4690
VWnt8b
p4691
sS'mmu:72843'
p4692
VPrdm4
p4693
sS'mmu:258098'
p4694
VOlfr1490
p4695
sS'mmu:19229'
p4696
VPtk2b
p4697
sS'cpd:C18038'
p4698
S'HMDB60424'
p4699
sS'cpd:C14039'
p4700
VPUBCHEM7846933
p4701
sS'mmu:258705'
p4702
VOlfr398
p4703
sS'cpd:C16356'
p4704
S'HMDB11103'
p4705
sS'mmu:226856'
p4706
VLpgat1
p4707
sS'cpd:C06198'
p4708
S'HMDB06796'
p4709
sS'mmu:99470'
p4710
VMagi3
p4711
sS'mmu:14963'
p4712
VH2-Bl
p4713
sS'mmu:11514'
p4714
VAdcy8
p4715
sS'cpd:C01794'
p4716
S'HMDB01374'
p4717
sS'mmu:14969'
p4718
VH2-Eb1
p4719
sS'mmu:11605'
p4720
VGla
p4721
sS'cpd:C01152'
p4722
S'HMDB00479'
p4723
sS'cpd:C16218'
p4724
VPUBCHEM47205526
p4725
sS'cpd:C01157'
p4726
S'HMDB00725'
p4727
sS'cpd:C01159'
p4728
S'HMDB01294'
p4729
sS'mmu:258399'
p4730
VOlfr1289
p4731
sS'mmu:246256'
p4732
VFcgr4
p4733
sS'cpd:C04308'
p4734
VPUBCHEM6966
p4735
sS'mmu:11515'
p4736
VAdcy9
p4737
sS'mmu:258689'
p4738
VOlfr1466
p4739
sS'mmu:381810'
p4740
VLpar5
p4741
sS'mmu:19043'
p4742
VPpm1b
p4743
sS'mmu:258426'
p4744
VOlfr995
p4745
sS'cpd:C16217'
p4746
VPUBCHEM47205525
p4747
sS'mmu:258394'
p4748
VOlfr1328
p4749
sS'mmu:56448'
p4750
VCyp2d22
p4751
sS'mmu:18088'
p4752
VNkx2-2
p4753
sS'mmu:231148'
p4754
VAblim2
p4755
sS'mmu:258823'
p4756
VOlfr969
p4757
sS'mmu:22373'
p4758
VWap
p4759
sS'mmu:258825'
p4760
VOlfr975
p4761
sS'cpd:C00170'
p4762
S'HMDB01173'
p4763
sS'mmu:381286'
p4764
VSerpinb3c
p4765
sS'mmu:258826'
p4766
VOlfr27
p4767
sS'cpd:C00178'
p4768
S'HMDB00262'
p4769
sS'cpd:C00179'
p4770
S'HMDB60259'
p4771
sS'cpd:C16358'
p4772
S'HMDB10738'
p4773
sS'cpd:C02538'
p4774
S'HMDB01425'
p4775
sS'cpd:C00777'
p4776
S'HMDB01852'
p4777
sS'mmu:12922'
p4778
VCrhr2
p4779
sS'mmu:258942'
p4780
VOlfr352
p4781
sS'mmu:80706'
p4782
VOlfr160
p4783
sS'mmu:12928'
p4784
VCrk
p4785
sS'mmu:258765'
p4786
VOlfr1110
p4787
sS'mmu:258764'
p4788
VOlfr1099
p4789
sS'mmu:22772'
p4790
VZic2
p4791
sS'cpd:C19673'
p4792
VPUBCHEM135626141
p4793
sS'mmu:258763'
p4794
VOlfr1104
p4795
sS'mmu:258946'
p4796
VOlfr348
p4797
sS'gl:G00071'
p4798
S'glG00071'
p4799
sS'gl:G00072'
p4800
S'glG00072'
p4801
sS'gl:G00073'
p4802
S'glG00073'
p4803
sS'gl:G00074'
p4804
S'glG00074'
p4805
sS'gl:G00075'
p4806
S'glG00075'
p4807
sS'gl:G00076'
p4808
S'glG00076'
p4809
sS'gl:G00077'
p4810
S'glG00077'
p4811
sS'mmu:12326'
p4812
VCamk4
p4813
sS'mmu:12323'
p4814
VCamk2b
p4815
sS'mmu:258268'
p4816
VOlfr1511
p4817
sS'cpd:C20792'
p4818
S'cpdC20792'
p4819
sS'cpd:C20793'
p4820
S'cpdC20793'
p4821
sS'cpd:C15610'
p4822
VPUBCHEM17396601
p4823
sS'cpd:C06049'
p4824
VPUBCHEM8320
p4825
sS'mmu:16828'
p4826
VLdha
p4827
sS'cpd:C03090'
p4828
S'HMDB01128'
p4829
sS'cpd:C01574'
p4830
VPUBCHEM4731
p4831
sS'cpd:C01571'
p4832
S'HMDB00511'
p4833
sS'cpd:C14749'
p4834
VPUBCHEM17395747
p4835
sS'mmu:257947'
p4836
VOlfr543
p4837
sS'mmu:258269'
p4838
VOlfr930
p4839
sS'mmu:239556'
p4840
VCacna1i
p4841
sS'gl:G00108'
p4842
S'glG00108'
p4843
sS'gl:G00109'
p4844
S'glG00109'
p4845
sS'cpd:C00681'
p4846
VPUBCHEM3950
p4847
sS'gl:G00104'
p4848
S'glG00104'
p4849
sS'mmu:18313'
p4850
VOlfr16
p4851
sS'mmu:259147'
p4852
VOlfr723
p4853
sS'mmu:258313'
p4854
VOlfr726
p4855
sS'mmu:18314'
p4856
VOlfr17
p4857
sS'mmu:18317'
p4858
VOlfr2
p4859
sS'gl:G00103'
p4860
S'glG00103'
p4861
sS'mmu:12495'
p4862
VEntpd1
p4863
sS'mmu:12497'
p4864
VEntpd6
p4865
sS'mmu:723818'
p4866
VMir135b
p4867
sS'mmu:723819'
p4868
VMir181c
p4869
sS'mmu:723814'
p4870
VMir223
p4871
sS'mmu:723815'
p4872
VMir128-2
p4873
sS'mmu:723817'
p4874
VMir133b
p4875
sS'cpd:C01036'
p4876
S'HMDB02052'
p4877
sS'cpd:C02232'
p4878
VPUBCHEM5296
p4879
sS'mmu:239114'
p4880
VIl17d
p4881
sS'mmu:230815'
p4882
VMan1c1
p4883
sS'mmu:26414'
p4884
VMapk10
p4885
sS'cpd:C05983'
p4886
S'HMDB06806'
p4887
sS'cpd:C00350'
p4888
VPUBCHEM3643
p4889
sS'cpd:C16216'
p4890
VPUBCHEM47205524
p4891
sS'cpd:C00352'
p4892
VPUBCHEM3645
p4893
sS'mmu:258548'
p4894
VOlfr805
p4895
sS'cpd:C00354'
p4896
VPUBCHEM3647
p4897
sS'cpd:C00355'
p4898
S'HMDB00181'
p4899
sS'cpd:C00356'
p4900
S'HMDB01375'
p4901
sS'cpd:C00357'
p4902
S'HMDB01062'
p4903
sS'cpd:C01931'
p4904
VPUBCHEM5037
p4905
sS'mmu:258547'
p4906
VOlfr803
p4907
sS'cpd:C00198'
p4908
S'HMDB00150'
p4909
sS'cpd:C00199'
p4910
VPUBCHEM3499
p4911
sS'mmu:16627'
p4912
VKlra1
p4913
sS'cpd:C05140'
p4914
S'HMDB06774'
p4915
sS'cpd:C00190'
p4916
VPUBCHEM3490
p4917
sS'cpd:C00191'
p4918
VPUBCHEM3491
p4919
sS'cpd:C00197'
p4920
S'HMDB60180'
p4921
sS'cpd:C00195'
p4922
VPUBCHEM3495
p4923
sS'cpd:C05490'
p4924
VPUBCHEM7849
p4925
sS'mmu:259058'
p4926
VOlfr646
p4927
sS'mmu:404222'
p4928
VOlfr231
p4929
sS'mmu:258055'
p4930
VOlfr524
p4931
sS'cpd:C05497'
p4932
VPUBCHEM7850
p4933
sS'cpd:C05498'
p4934
VPUBCHEM7851
p4935
sS'mmu:258235'
p4936
VOlfr1084
p4937
sS'mmu:259050'
p4938
VOlfr652
p4939
sS'mmu:259051'
p4940
VOlfr658
p4941
sS'mmu:259056'
p4942
VOlfr584
p4943
sS'mmu:259057'
p4944
VOlfr649
p4945
sS'mmu:259054'
p4946
VOlfr589
p4947
sS'mmu:259055'
p4948
VOlfr582
p4949
sS'cpd:C05653'
p4950
S'HMDB04089'
p4951
sS'cpd:C05651'
p4952
VPUBCHEM7962
p4953
sS'mmu:11674'
p4954
VAldoa
p4955
sS'cpd:C05528'
p4956
S'HMDB04045'
p4957
sS'mmu:258908'
p4958
VOlfr853
p4959
sS'mmu:258907'
p4960
VOlfr851
p4961
sS'mmu:258905'
p4962
VOlfr871
p4963
sS'mmu:258904'
p4964
VOlfr1221
p4965
sS'mmu:258903'
p4966
VOlfr1217
p4967
sS'mmu:258902'
p4968
VOlfr1220
p4969
sS'mmu:258901'
p4970
VOlfr1219
p4971
sS'mmu:258900'
p4972
VOlfr1213
p4973
sS'cpd:C00229'
p4974
VPUBCHEM3528
p4975
sS'cpd:C00575'
p4976
S'HMDB00058'
p4977
sS'cpd:C00224'
p4978
S'HMDB01003'
p4979
sS'mmu:258622'
p4980
VOlfr121
p4981
sS'cpd:C00226'
p4982
VPUBCHEM3526
p4983
sS'cpd:C00227'
p4984
S'HMDB01494'
p4985
sS'cpd:C00221'
p4986
S'HMDB00516'
p4987
sS'cpd:C00222'
p4988
S'HMDB11111'
p4989
sS'mmu:258623'
p4990
VOlfr123
p4991
sS'cpd:C06103'
p4992
S'HMDB12843'
p4993
sS'cpd:C06102'
p4994
S'HMDB12882'
p4995
sS'mmu:110891'
p4996
VSlc8a2
p4997
sS'mmu:258276'
p4998
VOlfr960
p4999
sS'mmu:258271'
p5000
VOlfr1311
p5001
sS'mmu:258270'
p5002
VOlfr448
p5003
sS'mmu:258273'
p5004
VOlfr1394
p5005
sS'mmu:258272'
p5006
VOlfr1402
p5007
sS'cpd:C04874'
p5008
VPUBCHEM7426
p5009
sS'mmu:11517'
p5010
VAdcyap1r1
p5011
sS'mmu:258279'
p5012
VOlfr846
p5013
sS'mmu:258278'
p5014
VOlfr284
p5015
sS'cpd:C01801'
p5016
VPUBCHEM4927
p5017
sS'mmu:11944'
p5018
VAtp4a
p5019
sS'mmu:12675'
p5020
VChuk
p5021
sS'mmu:209091'
p5022
VCcnb3
p5023
sS'cpd:C03557'
p5024
S'HMDB11747'
p5025
sS'mmu:629524'
p5026
VOlfr286
p5027
sS'mmu:100727'
p5028
VUgt2b34
p5029
sS'mmu:109624'
p5030
VCald1
p5031
sS'mmu:57271'
p5032
VOlfr1509
p5033
sS'cpd:C16084'
p5034
VPUBCHEM47205394
p5035
sS'cpd:C16082'
p5036
VPUBCHEM47205392
p5037
sS'cpd:C16081'
p5038
VPUBCHEM47205391
p5039
sS'cpd:C16080'
p5040
VPUBCHEM47205390
p5041
sS'cpd:C02051'
p5042
VPUBCHEM5140
p5043
sS'cpd:C02050'
p5044
VPUBCHEM5139
p5045
sS'mmu:11789'
p5046
VApc
p5047
sS'mmu:12477'
p5048
VCtla4
p5049
sS'cpd:C16089'
p5050
VPUBCHEM47205399
p5051
sS'cpd:C07653'
p5052
S'HMDB14642'
p5053
sS'mmu:258873'
p5054
VOlfr911-ps1
p5055
sS'mmu:258872'
p5056
VOlfr908
p5057
sS'mmu:258695'
p5058
VOlfr1453
p5059
sS'mmu:258694'
p5060
VOlfr1445
p5061
sS'mmu:258693'
p5062
VOlfr1443
p5063
sS'mmu:258692'
p5064
VOlfr1442
p5065
sS'mmu:258875'
p5066
VOlfr895
p5067
sS'mmu:258874'
p5068
VOlfr900
p5069
sS'mmu:258879'
p5070
VOlfr330
p5071
sS'cpd:C05527'
p5072
S'HMDB02332'
p5073
sS'mmu:213438'
p5074
VA630033H20Rik
p5075
sS'cpd:C06212'
p5076
S'HMDB04369'
p5077
sS'mmu:258699'
p5078
VOlfr1446
p5079
sS'mmu:18752'
p5080
VPrkcg
p5081
sS'mmu:353325'
p5082
VTas2r115
p5083
sS'mmu:258479'
p5084
VOlfr203
p5085
sS'mmu:258478'
p5086
VOlfr183
p5087
sS'mmu:100038859'
p5088
VOlfr55
p5089
sS'mmu:258475'
p5090
VOlfr889
p5091
sS'mmu:258474'
p5092
VOlfr890
p5093
sS'mmu:258472'
p5094
VOlfr899
p5095
sS'mmu:258471'
p5096
VOlfr891
p5097
sS'mmu:258470'
p5098
VOlfr91
p5099
sS'mmu:69870'
p5100
VPolr3gl
p5101
sS'mmu:258678'
p5102
VOlfr1441
p5103
sS'mmu:257666'
p5104
VOlfr772
p5105
sS'cpd:C05270'
p5106
S'HMDB02845'
p5107
sS'cpd:C05271'
p5108
S'HMDB03944'
p5109
sS'mmu:258673'
p5110
VOlfr1428
p5111
sS'mmu:258672'
p5112
VOlfr825
p5113
sS'cpd:C05274'
p5114
S'HMDB06404'
p5115
sS'cpd:C05275'
p5116
S'HMDB03948'
p5117
sS'mmu:258677'
p5118
VOlfr76
p5119
sS'mmu:258676'
p5120
VOlfr1424
p5121
sS'cpd:C05478'
p5122
VPUBCHEM7838
p5123
sS'cpd:C05479'
p5124
VPUBCHEM7839
p5125
sS'mmu:236784'
p5126
VOlfr1320
p5127
sS'cpd:C05473'
p5128
VPUBCHEM7833
p5129
sS'cpd:C05471'
p5130
S'HMDB03259'
p5131
sS'cpd:C05476'
p5132
VPUBCHEM7836
p5133
sS'mmu:243270'
p5134
VHcar1
p5135
sS'mmu:258589'
p5136
VOlfr703
p5137
sS'mmu:258583'
p5138
VOlfr1085
p5139
sS'mmu:258582'
p5140
VOlfr1022
p5141
sS'mmu:258580'
p5142
VOlfr1023
p5143
sS'mmu:258587'
p5144
VOlfr1100
p5145
sS'mmu:258586'
p5146
VOlfr1111
p5147
sS'mmu:258982'
p5148
VOlfr1272
p5149
sS'mmu:546769'
p5150
VOlfr1174-ps
p5151
sS'cpd:C03594'
p5152
VPUBCHEM6385
p5153
sS'mmu:666168'
p5154
VCyp4a31
p5155
sS'mmu:258706'
p5156
VOlfr43
p5157
sS'cpd:C16387'
p5158
VPUBCHEM47205685
p5159
sS'mmu:83383'
p5160
VTfap4
p5161
sS'mmu:18183'
p5162
VNrg3
p5163
sS'mmu:19696'
p5164
VRel
p5165
sS'mmu:100163'
p5166
VPafah2
p5167
sS'cpd:C02939'
p5168
S'HMDB01113'
p5169
sS'cpd:C02934'
p5170
S'HMDB01480'
p5171
sS'cpd:C14801'
p5172
S'HMDB60328'
p5173
sS'cpd:C14800'
p5174
S'HMDB60331'
p5175
sS'cpd:C02686'
p5176
VPUBCHEM5655
p5177
sS'cpd:C14802'
p5178
S'HMDB60332'
p5179
sS'mmu:258584'
p5180
VOlfr1101
p5181
sS'mmu:20022'
p5182
VPolr2j
p5183
sS'cpd:C16664'
p5184
VPUBCHEM51090988
p5185
sS'cpd:C16663'
p5186
VPUBCHEM51090987
p5187
sS'mmu:73458'
p5188
VAldh3b3
p5189
sS'cpd:C01802'
p5190
S'HMDB02719'
p5191
sS'mmu:99683'
p5192
VSec24b
p5193
sS'cpd:C01013'
p5194
S'HMDB00700'
p5195
sS'mmu:56050'
p5196
VCyp39a1
p5197
sS'cpd:C01019'
p5198
S'HMDB00174'
p5199
sS'cpd:C00515'
p5200
S'HMDB03374'
p5201
sS'cpd:C00513'
p5202
S'HMDB59599'
p5203
sS'cpd:C00510'
p5204
S'HMDB01322'
p5205
sS'mmu:231207'
p5206
VCpeb2
p5207
sS'mmu:231201'
p5208
VSusp4
p5209
sS'cpd:C18026'
p5210
VPUBCHEM96024246
p5211
sS'cpd:C00519'
p5212
S'HMDB00965'
p5213
sS'cpd:C02843'
p5214
VPUBCHEM5783
p5215
sS'mmu:723903'
p5216
VMir181b-2
p5217
sS'mmu:21929'
p5218
VTnfaip3
p5219
sS'mmu:19219'
p5220
VPtger4
p5221
sS'mmu:212111'
p5222
VInpp5a
p5223
sS'mmu:14131'
p5224
VFcgr3
p5225
sS'mmu:14130'
p5226
VFcgr2b
p5227
sS'mmu:544923'
p5228
VGm11397
p5229
sS'cpd:C11508'
p5230
S'HMDB06928'
p5231
sS'mmu:433031'
p5232
VOlfr194
p5233
sS'mmu:633979'
p5234
VAk9
p5235
sS'cpd:C18126'
p5236
VPUBCHEM96024343
p5237
sS'cpd:C16620'
p5238
S'HMDB60413'
p5239
sS'mmu:545417'
p5240
VOlfr367-ps
p5241
sS'mmu:50907'
p5242
VPreb
p5243
sS'mmu:53978'
p5244
VLpar2
p5245
sS'mmu:723894'
p5246
VMir224
p5247
sS'cpd:C00429'
p5248
S'HMDB00076'
p5249
sS'cpd:C01161'
p5250
S'HMDB01336'
p5251
sS'cpd:C00027'
p5252
S'HMDB03125'
p5253
sS'cpd:C00422'
p5254
VPUBCHEM3712
p5255
sS'cpd:C00427'
p5256
S'HMDB01381'
p5257
sS'cpd:C00534'
p5258
S'HMDB01431'
p5259
sS'mmu:100040268'
p5260
VOlfr157
p5261
sS'cpd:C15978'
p5262
S'HMDB12310'
p5263
sS'cpd:C15979'
p5264
VPUBCHEM47205292
p5265
sS'mmu:723892'
p5266
VMir100
p5267
sS'cpd:C03150'
p5268
S'HMDB00855'
p5269
sS'cpd:C15972'
p5270
VPUBCHEM47205285
p5271
sS'cpd:C15973'
p5272
VPUBCHEM47205286
p5273
sS'cpd:C09179'
p5274
VPUBCHEM11371
p5275
sS'cpd:C00021'
p5276
S'HMDB00939'
p5277
sS'cpd:C15976'
p5278
S'HMDB06866'
p5279
sS'cpd:C15977'
p5280
VPUBCHEM47205290
p5281
sS'cpd:C15974'
p5282
S'HMDB06865'
p5283
sS'cpd:C15975'
p5284
VPUBCHEM47205288
p5285
sS'cpd:C00167'
p5286
S'HMDB00935'
p5287
sS'cpd:C00166'
p5288
S'HMDB00205'
p5289
sS'cpd:C00165'
p5290
VPUBCHEM3465
p5291
sS'cpd:C00164'
p5292
S'HMDB00060'
p5293
sS'cpd:C00163'
p5294
S'HMDB00237'
p5295
sS'cpd:C00162'
p5296
VPUBCHEM3462
p5297
sS'cpd:C00160'
p5298
g4510
sS'gl:G10694'
p5299
S'glG10694'
p5300
sS'cpd:C00169'
p5301
S'HMDB01096'
p5302
sS'cpd:C00168'
p5303
S'HMDB01352'
p5304
sS'cpd:C00763'
p5305
S'HMDB03411'
p5306
sS'cpd:C00762'
p5307
S'HMDB02802'
p5308
sS'cpd:C18043'
p5309
S'HMDB00653'
p5310
sS'mmu:230558'
p5311
VC8a
p5312
sS'cpd:C01516'
p5313
S'HMDB14440'
p5314
sS'gl:G00005'
p5315
S'glG00005'
p5316
sS'mmu:194433'
p5317
VOlfr707
p5318
sS'gl:G00007'
p5319
S'glG00007'
p5320
sS'gl:G00006'
p5321
S'glG00006'
p5322
sS'mmu:100862247'
p5323
VGm21586
p5324
sS'gl:G00003'
p5325
S'glG00003'
p5326
sS'gl:G00002'
p5327
S'glG00002'
p5328
sS'gl:G00009'
p5329
S'glG00009'
p5330
sS'gl:G00008'
p5331
S'glG00008'
p5332
sS'gl:G10526'
p5333
S'glG10526'
p5334
sS'cpd:C05768'
p5335
S'HMDB02158'
p5336
sS'cpd:C07646'
p5337
S'HMDB60687'
p5338
sS'cpd:C07645'
p5339
S'HMDB60433'
p5340
sS'mmu:258604'
p5341
VOlfr970
p5342
sS'cpd:C00695'
p5343
S'HMDB00619'
p5344
sS'mmu:16542'
p5345
VKdr
p5346
sS'mmu:257956'
p5347
VOlfr1307
p5348
sS'mmu:257951'
p5349
VOlfr987
p5350
sS'cpd:C04517'
p5351
VPUBCHEM7130
p5352
sS'mmu:259040'
p5353
VOlfr1416
p5354
sS'cpd:C04518'
p5355
S'HMDB11653'
p5356
sS'mmu:257958'
p5357
VOlfr301
p5358
sS'mmu:259042'
p5359
VOlfr1351
p5360
sS'mmu:17309'
p5361
VMgat3
p5362
sS'gl:G00711'
p5363
S'glG00711'
p5364
sS'mmu:93687'
p5365
VCsnk1a1
p5366
sS'cpd:C20239'
p5367
VPUBCHEM163311982
p5368
sS'cpd:C20238'
p5369
VPUBCHEM163311981
p5370
sS'cpd:C04734'
p5371
S'HMDB01439'
p5372
sS'mmu:259044'
p5373
VOlfr1353
p5374
sS'mmu:236785'
p5375
VOlfr1321
p5376
sS'mmu:26409'
p5377
VMap3k7
p5378
sS'mmu:12265'
p5379
VCiita
p5380
sS'mmu:259074'
p5381
VOlfr1352
p5382
sS'cpd:C05489'
p5383
S'HMDB06760'
p5384
sS'mmu:12261'
p5385
VC1qbp
p5386
sS'mmu:71776'
p5387
VTha1
p5388
sS'mmu:26401'
p5389
VMap3k1
p5390
sS'cpd:C05488'
p5391
VPUBCHEM7847
p5392
sS'mmu:26405'
p5393
VMap3k2
p5394
sS'cpd:C00346'
p5395
S'HMDB00224'
p5396
sS'cpd:C00345'
p5397
S'HMDB01316'
p5398
sS'cpd:C00344'
p5399
VPUBCHEM3637
p5400
sS'cpd:C00343'
p5401
VPUBCHEM3636
p5402
sS'cpd:C00342'
p5403
VPUBCHEM3635
p5404
sS'cpd:C00341'
p5405
S'HMDB01285'
p5406
sS'cpd:C00189'
p5407
S'HMDB00149'
p5408
sS'cpd:C00188'
p5409
S'HMDB00167'
p5410
sS'mmu:55980'
p5411
VImpa1
p5412
sS'cpd:C00181'
p5413
S'HMDB00098'
p5414
sS'cpd:C00183'
p5415
S'HMDB00883'
p5416
sS'cpd:C00184'
p5417
S'HMDB01882'
p5418
sS'cpd:C00187'
p5419
VPUBCHEM3487
p5420
sS'cpd:C00186'
p5421
S'HMDB00190'
p5422
sS'cpd:C05487'
p5423
S'HMDB06762'
p5424
sS'mmu:258065'
p5425
VOlfr312
p5426
sS'cpd:C05485'
p5427
VPUBCHEM7845
p5428
sS'mmu:258067'
p5429
VOlfr1359
p5430
sS'mmu:257734'
p5431
VOlfr1355
p5432
sS'mmu:259041'
p5433
VOlfr1414
p5434
sS'cpd:C01209'
p5435
VPUBCHEM4431
p5436
sS'mmu:258353'
p5437
VOlfr521
p5438
sS'mmu:259045'
p5439
VOlfr669
p5440
sS'mmu:258069'
p5441
VOlfr787
p5442
sS'mmu:259047'
p5443
VOlfr683
p5444
sS'mmu:259046'
p5445
VOlfr679
p5446
sS'cpd:C05640'
p5447
S'HMDB04078'
p5448
sS'cpd:C05643'
p5449
S'HMDB04081'
p5450
sS'cpd:C05642'
p5451
S'HMDB04259'
p5452
sS'cpd:C05645'
p5453
S'HMDB04083'
p5454
sS'mmu:17540'
p5455
VMrvi1
p5456
sS'cpd:C05647'
p5457
S'HMDB12948'
p5458
sS'mmu:192176'
p5459
VFlna
p5460
sS'cpd:C02110'
p5461
S'HMDB02152'
p5462
sS'cpd:C05648'
p5463
VPUBCHEM7959
p5464
sS'mmu:11669'
p5465
VAldh2
p5466
sS'mmu:13430'
p5467
VDnm2
p5468
sS'mmu:13800'
p5469
VEnah
p5470
sS'cpd:C03428'
p5471
VPUBCHEM6255
p5472
sS'mmu:257941'
p5473
VOlfr1042
p5474
sS'cpd:C00233'
p5475
S'HMDB00695'
p5476
sS'cpd:C00232'
p5477
S'HMDB01259'
p5478
sS'cpd:C00231'
p5479
S'HMDB00868'
p5480
sS'mmu:258113'
p5481
VOlfr748
p5482
sS'cpd:C00236'
p5483
VPUBCHEM3535
p5484
sS'cpd:C00235'
p5485
S'HMDB01120'
p5486
sS'cpd:C00234'
p5487
S'HMDB00972'
p5488
sS'mmu:170768'
p5489
VPfkfb3
p5490
sS'cpd:C00239'
p5491
S'HMDB01202'
p5492
sS'mmu:258605'
p5493
VOlfr968
p5494
sS'cpd:C06178'
p5495
S'HMDB60253'
p5496
sS'mmu:387225'
p5497
VMir30a
p5498
sS'cpd:C03582'
p5499
S'HMDB03747'
p5500
sS'mmu:276865'
p5501
VOlfr1371
p5502
sS'mmu:387227'
p5503
VMir30c-1
p5504
sS'mmu:11797'
p5505
VBirc2
p5506
sS'mmu:387226'
p5507
VMir30b
p5508
sS'mmu:269862'
p5509
VOlfr1349
p5510
sS'mmu:57915'
p5511
VTbc1d1
p5512
sS'mmu:75678'
p5513
VIppk
p5514
sS'mmu:57269'
p5515
VOlfr1507
p5516
sS'mmu:329251'
p5517
VPpp1r12b
p5518
sS'mmu:258806'
p5519
VOlfr912
p5520
sS'mmu:258807'
p5521
VOlfr910
p5522
sS'mmu:258804'
p5523
VOlfr1240
p5524
sS'mmu:258805'
p5525
VOlfr1426
p5526
sS'mmu:69955'
p5527
VFars2
p5528
sS'mmu:258803'
p5529
VOlfr136
p5530
sS'mmu:258800'
p5531
VOlfr905
p5532
sS'mmu:224020'
p5533
VPi4ka
p5534
sS'mmu:387222'
p5535
VMir29a
p5536
sS'mmu:258808'
p5537
VOlfr620
p5538
sS'mmu:258809'
p5539
VOlfr651
p5540
sS'mmu:258482'
p5541
VOlfr266
p5542
sS'mmu:258483'
p5543
VOlfr1411
p5544
sS'mmu:258480'
p5545
VOlfr130
p5546
sS'mmu:258481'
p5547
VOlfr137
p5548
sS'mmu:258486'
p5549
VOlfr730
p5550
sS'mmu:258487'
p5551
VOlfr722
p5552
sS'mmu:258484'
p5553
VOlfr1410
p5554
sS'mmu:258485'
p5555
VOlfr724
p5556
sS'mmu:23832'
p5557
VXcr1
p5558
sS'mmu:224754'
p5559
VH2-M11
p5560
sS'cpd:C06000'
p5561
VPUBCHEM8274
p5562
sS'mmu:224756'
p5563
VH2-M1
p5564
sS'cpd:C16051'
p5565
VPUBCHEM47205361
p5566
sS'mmu:224753'
p5567
VH2-M10.4
p5568
sS'cpd:C16053'
p5569
VPUBCHEM47205363
p5570
sS'cpd:C18902'
p5571
S'HMDB60489'
p5572
sS'mmu:387176'
p5573
VMir181a-2
p5574
sS'cpd:C18904'
p5575
S'HMDB60490'
p5576
sS'mmu:258649'
p5577
VOlfr441
p5578
sS'cpd:C05269'
p5579
S'HMDB03943'
p5580
sS'cpd:C05268'
p5581
S'HMDB03942'
p5582
sS'mmu:258644'
p5583
VOlfr1166
p5584
sS'mmu:258645'
p5585
VOlfr418
p5586
sS'cpd:C05265'
p5587
S'HMDB03939'
p5588
sS'mmu:258647'
p5589
VOlfr435
p5590
sS'mmu:258640'
p5591
VOlfr152
p5592
sS'cpd:C05262'
p5593
S'HMDB03936'
p5594
sS'cpd:C05261'
p5595
VPUBCHEM7648
p5596
sS'mmu:258643'
p5597
VOlfr1160
p5598
sS'cpd:C05469'
p5599
S'HMDB06758'
p5600
sS'mmu:60505'
p5601
VIl21
p5602
sS'mmu:258111'
p5603
VOlfr1129
p5604
sS'cpd:C00141'
p5605
S'HMDB00019'
p5606
sS'mmu:73934'
p5607
VCldn34c4
p5608
sS'cpd:C05465'
p5609
S'HMDB00951'
p5610
sS'cpd:C05467'
p5611
S'HMDB06891'
p5612
sS'cpd:C05466'
p5613
VPUBCHEM7826
p5614
sS'mmu:258248'
p5615
VOlfr576
p5616
sS'mmu:258249'
p5617
VOlfr845
p5618
sS'mmu:72058'
p5619
VIgsf5
p5620
sS'mmu:258241'
p5621
VOlfr1212
p5622
sS'mmu:117149'
p5623
VTirap
p5624
sS'mmu:258245'
p5625
VOlfr1036
p5626
sS'mmu:258246'
p5627
VOlfr594
p5628
sS'mmu:258247'
p5629
VOlfr645
p5630
sS'cpd:C00664'
p5631
S'HMDB01534'
p5632
sS'mmu:20908'
p5633
VStx3
p5634
sS'cpd:C00984'
p5635
S'HMDB00143'
p5636
sS'cpd:C00986'
p5637
S'HMDB00002'
p5638
sS'cpd:C00988'
p5639
S'HMDB00816'
p5640
sS'mmu:258117'
p5641
VOlfr1437
p5642
sS'mmu:242546'
p5643
VCyp2j12
p5644
sS'mmu:19683'
p5645
VRdh16
p5646
sS'mmu:22074'
p5647
VTry4
p5648
sS'cpd:C01344'
p5649
S'HMDB03536'
p5650
sS'mmu:723962'
p5651
VMir26a-2
p5652
sS'cpd:C01346'
p5653
S'HMDB01000'
p5654
sS'mmu:53608'
p5655
VMap3k6
p5656
sS'mmu:723963'
p5657
VMir29b-2
p5658
sS'mmu:100041187'
p5659
VOlfr596
p5660
sS'cpd:C14839'
p5661
S'HMDB60448'
p5662
sS'mmu:258877'
p5663
VOlfr1395
p5664
sS'mmu:723965'
p5665
VMirlet7a-2
p5666
sS'mmu:723966'
p5667
VMirlet7c-2
p5668
sS'mmu:110784'
p5669
VNr3c2
p5670
sS'mmu:723967'
p5671
VMir9-2
p5672
sS'mmu:75456'
p5673
VPrps1l1
p5674
sS'mmu:29858'
p5675
VPmm1
p5676
sS'mmu:104318'
p5677
VCsnk1d
p5678
sS'cpd:C00951'
p5679
S'HMDB00151'
p5680
sS'mmu:243548'
p5681
VPrickle2
p5682
sS'cpd:C01005'
p5683
S'HMDB00272'
p5684
sS'mmu:18640'
p5685
VPfkfb2
p5686
sS'mmu:259148'
p5687
VOlfr329-ps
p5688
sS'cpd:C00504'
p5689
S'HMDB00121'
p5690
sS'cpd:C05350'
p5691
S'HMDB06915'
p5692
sS'mmu:22401'
p5693
VZmat3
p5694
sS'mmu:238564'
p5695
VMylk4
p5696
sS'cpd:C15195'
p5697
VPUBCHEM17396192
p5698
sS'mmu:22094'
p5699
VTshb
p5700
sS'mmu:630845'
p5701
VTas2r122
p5702
sS'mmu:74450'
p5703
VPank2
p5704
sS'mmu:667373'
p5705
VIfit1bl1
p5706
sS'mmu:14126'
p5707
VMs4a2
p5708
sS'cpd:C11061'
p5709
S'HMDB03141'
p5710
sS'cpd:C06481'
p5711
VPUBCHEM8712
p5712
sS'mmu:21872'
p5713
VTjp1
p5714
sS'mmu:21873'
p5715
VTjp2
p5716
sS'cpd:C04748'
p5717
VPUBCHEM7318
p5718
sS'cpd:C01179'
p5719
S'HMDB00707'
p5720
sS'cpd:C01172'
p5721
S'HMDB03498'
p5722
sS'cpd:C01177'
p5723
VPUBCHEM4404
p5724
sS'cpd:C01176'
p5725
S'HMDB00374'
p5726
sS'cpd:C00439'
p5727
S'HMDB00854'
p5728
sS'cpd:C00438'
p5729
S'HMDB00828'
p5730
sS'cpd:C05100'
p5731
S'HMDB02031'
p5732
sS'cpd:C05107'
p5733
S'HMDB03896'
p5734
sS'cpd:C15980'
p5735
VPUBCHEM47205293
p5736
sS'cpd:C00109'
p5737
S'HMDB00005'
p5738
sS'cpd:C00430'
p5739
S'HMDB01149'
p5740
sS'cpd:C00433'
p5741
S'HMDB60365'
p5742
sS'cpd:C05109'
p5743
S'HMDB06839'
p5744
sS'mmu:53901'
p5745
VRcan2
p5746
sS'cpd:C00437'
p5747
S'HMDB03357'
p5748
sS'mmu:259048'
p5749
VOlfr600
p5750
sS'mmu:258607'
p5751
VOlfr971
p5752
sS'mmu:18798'
p5753
VPlcb4
p5754
sS'mmu:112417'
p5755
VUgt2b37
p5756
sS'mmu:14058'
p5757
VF10
p5758
sS'mmu:72084'
p5759
VPigx
p5760
sS'mmu:234669'
p5761
VCes2b
p5762
sS'mmu:100042690'
p5763
VGm13769
p5764
sS'mmu:14056'
p5765
VEzh2
p5766
sS'mmu:13019'
p5767
VCtf1
p5768
sS'mmu:97848'
p5769
VSerpinb6c
p5770
sS'mmu:258671'
p5771
VOlfr826
p5772
sS'cpd:C04188'
p5773
VPUBCHEM6864
p5774
sS'cpd:C04185'
p5775
S'HMDB01253'
p5776
sS'cpd:C15181'
p5777
VPUBCHEM17396178
p5778
sS'mmu:78625'
p5779
V1700061G19Rik
p5780
sS'cpd:C00750'
p5781
S'HMDB01256'
p5782
sS'mmu:257891'
p5783
VOlfr479
p5784
sS'mmu:257892'
p5785
VOlfr324
p5786
sS'mmu:104015'
p5787
VSynj1
p5788
sS'mmu:258670'
p5789
VOlfr820
p5790
sS'mmu:21415'
p5791
VTcf7l1
p5792
sS'mmu:13655'
p5793
VEgr3
p5794
sS'mmu:14430'
p5795
VGalt
p5796
sS'gl:G00016'
p5797
S'glG00016'
p5798
sS'gl:G00017'
p5799
S'glG00017'
p5800
sS'gl:G00014'
p5801
S'glG00014'
p5802
sS'gl:G00015'
p5803
S'glG00015'
p5804
sS'gl:G00012'
p5805
S'glG00012'
p5806
sS'gl:G00013'
p5807
S'glG00013'
p5808
sS'gl:G00010'
p5809
S'glG00010'
p5810
sS'gl:G00011'
p5811
S'glG00011'
p5812
sS'cpd:C05924'
p5813
VPUBCHEM8212
p5814
sS'gl:G00872'
p5815
S'glG00872'
p5816
sS'cpd:C05921'
p5817
S'HMDB04220'
p5818
sS'cpd:C05922'
p5819
S'HMDB06822'
p5820
sS'gl:G00019'
p5821
S'glG00019'
p5822
sS'cpd:C14768'
p5823
S'HMDB02190'
p5824
sS'cpd:C14769'
p5825
S'HMDB02232'
p5826
sS'mmu:381290'
p5827
VAtp2b4
p5828
sS'cpd:C14767'
p5829
S'HMDB04670'
p5830
sS'cpd:C11088'
p5831
S'HMDB60334'
p5832
sS'cpd:C01595'
p5833
S'HMDB00673'
p5834
sS'mmu:70827'
p5835
VTrak2
p5836
sS'cpd:C01598'
p5837
S'HMDB01389'
p5838
sS'mmu:257962'
p5839
VOlfr222
p5840
sS'mmu:257963'
p5841
VOlfr857
p5842
sS'cpd:C04501'
p5843
VPUBCHEM7115
p5844
sS'cpd:C05859'
p5845
S'HMDB60469'
p5846
sS'mmu:93960'
p5847
VNkd1
p5848
sS'cpd:C04506'
p5849
VPUBCHEM7120
p5850
sS'mmu:194735'
p5851
VBtg1-ps2
p5852
sS'cpd:C05852'
p5853
S'HMDB00669'
p5854
sS'mmu:18332'
p5855
VOlfr33
p5856
sS'mmu:18331'
p5857
VOlfr32
p5858
sS'mmu:18330'
p5859
VOlfr31
p5860
sS'cpd:C02218'
p5861
S'HMDB03609'
p5862
sS'cpd:C04722'
p5863
VPUBCHEM7294
p5864
sS'mmu:12274'
p5865
VC6
p5866
sS'mmu:436059'
p5867
VCes2h
p5868
sS'mmu:54483'
p5869
VMefv
p5870
sS'cpd:C04051'
p5871
S'HMDB03192'
p5872
sS'mmu:100041953'
p5873
VGm10094
p5874
sS'mmu:76507'
p5875
VAoc1
p5876
sS'mmu:258802'
p5877
VOlfr143
p5878
sS'mmu:78803'
p5879
VFbxo43
p5880
sS'mmu:258259'
p5881
VOlfr1338
p5882
sS'mmu:723908'
p5883
VMir331
p5884
sS'mmu:259078'
p5885
VOlfr656
p5886
sS'mmu:270076'
p5887
VGcdh
p5888
sS'mmu:259075'
p5889
VOlfr641
p5890
sS'mmu:258404'
p5891
VOlfr1080
p5892
sS'mmu:258801'
p5893
VOlfr907
p5894
sS'mmu:259070'
p5895
VOlfr829
p5896
sS'mmu:259071'
p5897
VOlfr166
p5898
sS'mmu:259072'
p5899
VOlfr686
p5900
sS'mmu:259073'
p5901
VOlfr603
p5902
sS'cpd:C05675'
p5903
VPUBCHEM7982
p5904
sS'mmu:258960'
p5905
VOlfr171
p5906
sS'cpd:C02107'
p5907
S'HMDB29878'
p5908
sS'mmu:258963'
p5909
VOlfr539
p5910
sS'mmu:27057'
p5911
VNcoa4
p5912
sS'cpd:C03454'
p5913
VPUBCHEM6274
p5914
sS'mmu:258746'
p5915
VOlfr648
p5916
sS'mmu:76768'
p5917
VAlpi
p5918
sS'cpd:C03451'
p5919
S'HMDB01066'
p5920
sS'cpd:C06341'
p5921
S'HMDB06281'
p5922
sS'mmu:258964'
p5923
VOlfr541
p5924
sS'cpd:C00246'
p5925
S'HMDB00039'
p5926
sS'mmu:258105'
p5927
VOlfr1162
p5928
sS'cpd:C00245'
p5929
S'HMDB00251'
p5930
sS'cpd:C00242'
p5931
S'HMDB00132'
p5932
sS'mmu:258967'
p5933
VOlfr1250
p5934
sS'mmu:16155'
p5935
VIl10rb
p5936
sS'mmu:16156'
p5937
VIl11
p5938
sS'mmu:16151'
p5939
VIkbkg
p5940
sS'mmu:16150'
p5941
VIkbkb
p5942
sS'cpd:C00249'
p5943
S'HMDB00220'
p5944
sS'mmu:76626'
p5945
VMsi2
p5946
sS'cpd:C04853'
p5947
S'HMDB01509'
p5948
sS'cpd:C05588'
p5949
VPUBCHEM7913
p5950
sS'cpd:C05589'
p5951
VPUBCHEM7914
p5952
sS'cpd:C05587'
p5953
S'HMDB00022'
p5954
sS'cpd:C05584'
p5955
VPUBCHEM7910
p5956
sS'cpd:C05585'
p5957
S'HMDB04062'
p5958
sS'cpd:C05582'
p5959
S'HMDB00118'
p5960
sS'cpd:C05583'
p5961
S'HMDB04061'
p5962
sS'cpd:C05580'
p5963
S'HMDB01866'
p5964
sS'cpd:C05581'
p5965
S'HMDB05175'
p5966
sS'mmu:213208'
p5967
VIl20rb
p5968
sS'cpd:C18872'
p5969
S'HMDB42052'
p5970
sS'mmu:100628572'
p5971
VMir101c
p5972
sS'mmu:241197'
p5973
VSerpinb10
p5974
sS'cpd:C01110'
p5975
S'HMDB06272'
p5976
sS'mmu:258815'
p5977
VOlfr1218
p5978
sS'mmu:258814'
p5979
VOlfr1156
p5980
sS'mmu:258817'
p5981
VOlfr655
p5982
sS'mmu:258816'
p5983
VOlfr466
p5984
sS'mmu:258811'
p5985
VOlfr926
p5986
sS'mmu:258810'
p5987
VOlfr665
p5988
sS'mmu:258812'
p5989
VOlfr923
p5990
sS'mmu:258819'
p5991
VOlfr640
p5992
sS'mmu:258818'
p5993
VOlfr629
p5994
sS'mmu:258074'
p5995
VOlfr834
p5996
sS'cpd:C16043'
p5997
VPUBCHEM47205353
p5998
sS'mmu:224761'
p5999
VH2-M10.5
p6000
sS'mmu:258493'
p6001
VOlfr319
p6002
sS'cpd:C06001'
p6003
S'HMDB00023'
p6004
sS'mmu:258495'
p6005
VOlfr328
p6006
sS'mmu:258494'
p6007
VOlfr318
p6008
sS'gl:G00001'
p6009
S'glG00001'
p6010
sS'cpd:C05125'
p6011
S'HMDB03904'
p6012
sS'mmu:258499'
p6013
VOlfr945
p6014
sS'mmu:23805'
p6015
VApc2
p6016
sS'cpd:C16048'
p6017
VPUBCHEM47205358
p6018
sS'mmu:337924'
p6019
VCyp3a44
p6020
sS'mmu:258653'
p6021
VOlfr1136
p6022
sS'gl:G00113'
p6023
S'glG00113'
p6024
sS'cpd:C05290'
p6025
S'HMDB03955'
p6026
sS'mmu:258650'
p6027
VOlfr444
p6028
sS'mmu:258657'
p6029
VOlfr733
p6030
sS'cpd:C00016'
p6031
S'HMDB01248'
p6032
sS'mmu:258655'
p6033
VOlfr1112
p6034
sS'mmu:258654'
p6035
VOlfr1135
p6036
sS'cpd:C05298'
p6037
S'HMDB00343'
p6038
sS'mmu:258658'
p6039
VOlfr734
p6040
sS'mmu:257939'
p6041
VOlfr527
p6042
sS'cpd:C00416'
p6043
VPUBCHEM3706
p6044
sS'gl:G00110'
p6045
S'glG00110'
p6046
sS'mmu:320707'
p6047
VAtp2b3
p6048
sS'mmu:258659'
p6049
VOlfr732
p6050
sS'cpd:C05454'
p6051
S'HMDB01457'
p6052
sS'cpd:C05455'
p6053
S'HMDB01993'
p6054
sS'cpd:C14748'
p6055
S'HMDB60102'
p6056
sS'cpd:C05450'
p6057
S'HMDB06890'
p6058
sS'cpd:C05451'
p6059
VPUBCHEM7813
p6060
sS'cpd:C05452'
p6061
S'HMDB06893'
p6062
sS'cpd:C05453'
p6063
VPUBCHEM7815
p6064
sS'mmu:228443'
p6065
VOlfr1283
p6066
sS'mmu:384732'
p6067
VGm10081
p6068
sS'mmu:20224'
p6069
VSar1a
p6070
sS'mmu:258258'
p6071
VOlfr1308
p6072
sS'mmu:258257'
p6073
VOlfr1313
p6074
sS'mmu:258648'
p6075
VOlfr237-ps1
p6076
sS'mmu:258255'
p6077
VOlfr1010
p6078
sS'mmu:258252'
p6079
VOlfr813
p6080
sS'cpd:C17332'
p6081
S'HMDB60425'
p6082
sS'mmu:723946'
p6083
VMir345
p6084
sS'mmu:73699'
p6085
VPpp2r1b
p6086
sS'cpd:C17331'
p6087
VPUBCHEM96023693
p6088
sS'cpd:C17336'
p6089
VPUBCHEM96023697
p6090
sS'cpd:C17337'
p6091
VPUBCHEM96023698
p6092
sS'cpd:C17335'
p6093
VPUBCHEM96023696
p6094
sS'cpd:C17339'
p6095
VPUBCHEM96023699
p6096
sS'cpd:C13636'
p6097
S'HMDB60390'
p6098
sS'cpd:C05267'
p6099
S'HMDB03941'
p6100
sS'cpd:C00886'
p6101
VPUBCHEM4142
p6102
sS'mmu:242517'
p6103
VIfna15
p6104
sS'mmu:257938'
p6105
VOlfr1419
p6106
sS'cpd:C05266'
p6107
VPUBCHEM7653
p6108
sS'mmu:723942'
p6109
VMir92-2
p6110
sS'cpd:C02305'
p6111
S'HMDB01511'
p6112
sS'mmu:71832'
p6113
VCsl
p6114
sS'cpd:C01352'
p6115
VPUBCHEM4556
p6116
sS'cpd:C14826'
p6117
VPUBCHEM17395824
p6118
sS'cpd:C14825'
p6119
VPUBCHEM17395823
p6120
sS'cpd:C05264'
p6121
VPUBCHEM7651
p6122
sS'cpd:C14823'
p6123
S'HMDB04699'
p6124
sS'cpd:C02918'
p6125
S'HMDB00699'
p6126
sS'cpd:C05263'
p6127
S'HMDB03937'
p6128
sS'mmu:258641'
p6129
VOlfr1154
p6130
sS'cpd:C16681'
p6131
VPUBCHEM51091004
p6132
sS'cpd:C16680'
p6133
S'HMDB12451'
p6134
sS'cpd:C16682'
p6135
S'HMDB06217'
p6136
sS'cpd:C05260'
p6137
S'HMDB03934'
p6138
sS'mmu:107746'
p6139
VRapgef1
p6140
sS'mmu:387339'
p6141
VTas2r102
p6142
sS'mmu:99663'
p6143
VClca4a
p6144
sS'cpd:C00881'
p6145
S'HMDB00014'
p6146
sS'gl:G13041'
p6147
S'glG13041'
p6148
sS'mmu:545985'
p6149
VOlfr612
p6150
sS'gl:G13043'
p6151
S'glG13043'
p6152
sS'gl:G13042'
p6153
S'glG13042'
p6154
sS'gl:G13044'
p6155
S'glG13044'
p6156
sS'mmu:18654'
p6157
VPgf
p6158
sS'cpd:C06112'
p6159
VPUBCHEM8374
p6160
sS'mmu:239017'
p6161
VOgdhl
p6162
sS'cpd:C00530'
p6163
S'HMDB02434'
p6164
sS'cpd:C00532'
p6165
S'HMDB01851'
p6166
sS'mmu:723826'
p6167
VMir107
p6168
sS'cpd:C17938'
p6169
VPUBCHEM96024159
p6170
sS'cpd:C00535'
p6171
S'HMDB00234'
p6172
sS'cpd:C06314'
p6173
S'HMDB04385'
p6174
sS'cpd:C18045'
p6175
S'HMDB04611'
p6176
sS'cpd:C18044'
p6177
S'HMDB60382'
p6178
sS'mmu:387190'
p6179
VMir195a
p6180
sS'mmu:19271'
p6181
VPtprj
p6182
sS'cpd:C18040'
p6183
S'HMDB60407'
p6184
sS'mmu:387195'
p6185
VMir19b-2
p6186
sS'mmu:387194'
p6187
VMir199a-1
p6188
sS'cpd:C05460'
p6189
S'HMDB06889'
p6190
sS'mmu:259122'
p6191
VOlfr635
p6192
sS'cpd:C03845'
p6193
S'HMDB06841'
p6194
sS'mmu:100503710'
p6195
VGm5741
p6196
sS'mmu:258534'
p6197
VOlfr1361
p6198
sS'mmu:14933'
p6199
VGyk
p6200
sS'mmu:259123'
p6201
VOlfr632
p6202
sS'cpd:C11278'
p6203
S'HMDB60431'
p6204
sS'cpd:C01103'
p6205
S'HMDB00218'
p6206
sS'mmu:22004'
p6207
VTpm2
p6208
sS'mmu:19092'
p6209
VPrkg2
p6210
sS'cpd:C00408'
p6211
S'HMDB00716'
p6212
sS'mmu:19099'
p6213
VMapk8ip1
p6214
sS'cpd:C00407'
p6215
S'HMDB00172'
p6216
sS'cpd:C00400'
p6217
S'HMDB03352'
p6218
sS'cpd:C00402'
p6219
S'HMDB06483'
p6220
sS'mmu:18787'
p6221
VSerpine1
p6222
sS'mmu:14205'
p6223
VFigf
p6224
sS'mmu:18783'
p6225
VPla2g4a
p6226
sS'mmu:258675'
p6227
VOlfr1423
p6228
sS'mmu:22324'
p6229
VVav1
p6230
sS'mmu:11705'
p6231
VAmh
p6232
sS'mmu:259088'
p6233
VOlfr639
p6234
sS'cpd:C15776'
p6235
S'HMDB06845'
p6236
sS'cpd:C15777'
p6237
S'HMDB06847'
p6238
sS'cpd:C15778'
p6239
S'HMDB60404'
p6240
sS'mmu:258326'
p6241
VOlfr642
p6242
sS'mmu:257889'
p6243
VOlfr132
p6244
sS'mmu:257888'
p6245
VOlfr1386
p6246
sS'mmu:257883'
p6247
VOlfr1357
p6248
sS'cpd:C06424'
p6249
S'HMDB00806'
p6250
sS'mmu:257881'
p6251
VOlfr205
p6252
sS'cpd:C00740'
p6253
S'HMDB03406'
p6254
sS'mmu:257887'
p6255
VOlfr1200
p6256
sS'cpd:C14812'
p6257
S'HMDB04692'
p6258
sS'cpd:C06425'
p6259
S'HMDB02212'
p6260
sS'cpd:C00718'
p6261
VPUBCHEM3984
p6262
sS'cpd:C01613'
p6263
S'HMDB03553'
p6264
sS'cpd:C12083'
p6265
VPUBCHEM14234
p6266
sS'mmu:13480'
p6267
VDpm1
p6268
sS'cpd:C06426'
p6269
S'HMDB03073'
p6270
sS'cpd:C04227'
p6271
S'HMDB04825'
p6272
sS'mmu:258325'
p6273
VOlfr110
p6274
sS'cpd:C06428'
p6275
S'HMDB01999'
p6276
sS'mmu:14998'
p6277
VH2-DMa
p6278
sS'cpd:C00696'
p6279
S'HMDB01403'
p6280
sS'cpd:C19317'
p6281
S'HMDB05843'
p6282
sS'cpd:C06429'
p6283
S'HMDB02183'
p6284
sS'mmu:269275'
p6285
VAcvr1c
p6286
sS'mmu:14447'
p6287
VGapdhs
p6288
sS'mmu:13649'
p6289
VEgfr
p6290
sS'mmu:404331'
p6291
VOlfr1252
p6292
sS'mmu:17896'
p6293
VMyl4
p6294
sS'cpd:C05933'
p6295
S'HMDB04224'
p6296
sS'cpd:C05936'
p6297
S'HMDB04226'
p6298
sS'mmu:436199'
p6299
VBtg1-ps1
p6300
sS'mmu:22031'
p6301
VTraf3
p6302
sS'mmu:230979'
p6303
VTnfrsf14
p6304
sS'cpd:C05938'
p6305
S'HMDB06556'
p6306
sS'cpd:C14778'
p6307
S'HMDB04680'
p6308
sS'cpd:C14776'
p6309
S'HMDB04679'
p6310
sS'cpd:C14775'
p6311
S'HMDB02265'
p6312
sS'cpd:C14774'
p6313
S'HMDB02314'
p6314
sS'mmu:240168'
p6315
VRasgrp3
p6316
sS'cpd:C14772'
p6317
S'HMDB02343'
p6318
sS'cpd:C14771'
p6319
S'HMDB04264'
p6320
sS'cpd:C14770'
p6321
VPUBCHEM17395768
p6322
sS'mmu:12841'
p6323
VCol9a3
p6324
sS'mmu:12840'
p6325
VCol9a2
p6326
sS'mmu:212862'
p6327
VChpt1
p6328
sS'mmu:257979'
p6329
VOlfr1281
p6330
sS'mmu:54123'
p6331
VIrf7
p6332
sS'mmu:67861'
p6333
VAkr1b10
p6334
sS'mmu:257975'
p6335
VOlfr598
p6336
sS'mmu:257974'
p6337
VOlfr1053
p6338
sS'cpd:C04088'
p6339
VPUBCHEM6780
p6340
sS'mmu:257972'
p6341
VOlfr193
p6342
sS'mmu:56546'
p6343
VSec1
p6344
sS'cpd:C01724'
p6345
S'HMDB01251'
p6346
sS'cpd:C00366'
p6347
S'HMDB00289'
p6348
sS'mmu:18324'
p6349
VOlfr26
p6350
sS'mmu:18329'
p6351
VOlfr30
p6352
sS'cpd:C05844'
p6353
S'HMDB04195'
p6354
sS'cpd:C05843'
p6355
S'HMDB04194'
p6356
sS'cpd:C05842'
p6357
S'HMDB04193'
p6358
sS'cpd:C05841'
p6359
S'HMDB06809'
p6360
sS'mmu:258322'
p6361
VOlfr554
p6362
sS'cpd:C02266'
p6363
S'HMDB11676'
p6364
sS'cpd:C00353'
p6365
S'HMDB04486'
p6366
sS'cpd:C00362'
p6367
S'HMDB01044'
p6368
sS'mmu:399549'
p6369
VH2-M10.6
p6370
sS'mmu:71754'
p6371
VCyp2d40
p6372
sS'mmu:76089'
p6373
VRapgef2
p6374
sS'cpd:C20690'
p6375
VPUBCHEM172232410
p6376
sS'mmu:27029'
p6377
VSgsh
p6378
sS'mmu:259021'
p6379
VOlfr1054
p6380
sS'cpd:C04409'
p6381
S'HMDB01330'
p6382
sS'gl:G00029'
p6383
S'glG00029'
p6384
sS'gl:G00028'
p6385
S'glG00028'
p6386
sS'gl:G00023'
p6387
S'glG00023'
p6388
sS'gl:G00022'
p6389
S'glG00022'
p6390
sS'gl:G00021'
p6391
S'glG00021'
p6392
sS'mmu:73626'
p6393
V1810009J06Rik
p6394
sS'gl:G00027'
p6395
S'glG00027'
p6396
sS'cpd:C04405'
p6397
S'HMDB01356'
p6398
sS'gl:G00025'
p6399
S'glG00025'
p6400
sS'gl:G00024'
p6401
S'glG00024'
p6402
sS'mmu:259063'
p6403
VOlfr691
p6404
sS'mmu:259062'
p6405
VOlfr667
p6406
sS'mmu:259061'
p6407
VOlfr668
p6408
sS'cpd:C05668'
p6409
S'HMDB06807'
p6410
sS'cpd:C06482'
p6411
VPUBCHEM8713
p6412
sS'mmu:259066'
p6413
VOlfr520
p6414
sS'mmu:259064'
p6415
VOlfr124
p6416
sS'mmu:259069'
p6417
VOlfr1389
p6418
sS'cpd:C05660'
p6419
S'HMDB04096'
p6420
sS'cpd:C05665'
p6421
S'HMDB01106'
p6422
sS'mmu:17769'
p6423
VMthfr
p6424
sS'mmu:258411'
p6425
VOlfr290
p6426
sS'mmu:20295'
p6427
VCcl17
p6428
sS'mmu:12517'
p6429
VCd72
p6430
sS'cpd:C06800'
p6431
S'HMDB06552'
p6432
sS'cpd:C03440'
p6433
S'HMDB60460'
p6434
sS'mmu:258415'
p6435
VOlfr887
p6436
sS'cpd:C01345'
p6437
S'HMDB03537'
p6438
sS'cpd:C00255'
p6439
S'HMDB00244'
p6440
sS'mmu:17855'
p6441
VMvk
p6442
sS'cpd:C00257'
p6443
S'HMDB00625'
p6444
sS'cpd:C00256'
p6445
S'HMDB01311'
p6446
sS'cpd:C00250'
p6447
S'HMDB01545'
p6448
sS'cpd:C00253'
p6449
S'HMDB01488'
p6450
sS'cpd:C00252'
p6451
S'HMDB02923'
p6452
sS'mmu:241989'
p6453
VPabpc4l
p6454
sS'mmu:258416'
p6455
VOlfr888
p6456
sS'cpd:C00259'
p6457
S'HMDB00646'
p6458
sS'cpd:C00258'
p6459
S'HMDB00139'
p6460
sS'mmu:258712'
p6461
VOlfr433
p6462
sS'mmu:258713'
p6463
VOlfr430
p6464
sS'mmu:258710'
p6465
VOlfr419
p6466
sS'mmu:258711'
p6467
VOlfr432
p6468
sS'mmu:258716'
p6469
VOlfr424
p6470
sS'mmu:404307'
p6471
VOlfr100
p6472
sS'cpd:C01262'
p6473
S'HMDB00194'
p6474
sS'cpd:C05594'
p6475
S'HMDB01490'
p6476
sS'mmu:258718'
p6477
VOlfr513
p6478
sS'mmu:404309'
p6479
VOlfr192
p6480
sS'mmu:11421'
p6481
VAce
p6482
sS'mmu:259053'
p6483
VOlfr362
p6484
sS'mmu:16362'
p6485
VIrf1
p6486
sS'mmu:19116'
p6487
VPrlr
p6488
sS'cpd:C03508'
p6489
S'HMDB06454'
p6490
sS'mmu:16369'
p6491
VIrs3
p6492
sS'mmu:258828'
p6493
VOlfr133
p6494
sS'mmu:258829'
p6495
VOlfr134
p6496
sS'mmu:546747'
p6497
VOlfr220
p6498
sS'cpd:C02002'
p6499
VPUBCHEM5098
p6500
sS'mmu:258398'
p6501
VOlfr1295
p6502
sS'cpd:C16219'
p6503
VPUBCHEM47205527
p6504
sS'mmu:258396'
p6505
VOlfr1305
p6506
sS'mmu:258821'
p6507
VOlfr273
p6508
sS'mmu:258822'
p6509
VOlfr39
p6510
sS'mmu:258395'
p6511
VOlfr1288
p6512
sS'mmu:258392'
p6513
VOlfr190
p6514
sS'mmu:12795'
p6515
VPlk3
p6516
sS'mmu:258390'
p6517
VOlfr1276
p6518
sS'mmu:258391'
p6519
VOlfr1277
p6520
sS'mmu:259159'
p6521
VOlfr628
p6522
sS'mmu:12986'
p6523
VCsf3r
p6524
sS'cpd:C03824'
p6525
S'HMDB01280'
p6526
sS'mmu:235248'
p6527
VOlfr952
p6528
sS'cpd:C16042'
p6529
VPUBCHEM47205352
p6530
sS'cpd:C00884'
p6531
S'HMDB00745'
p6532
sS'cpd:C01921'
p6533
VPUBCHEM5027
p6534
sS'cpd:C01290'
p6535
VPUBCHEM4509
p6536
sS'mmu:258626'
p6537
VOlfr1501
p6538
sS'cpd:C05280'
p6539
S'HMDB03952'
p6540
sS'mmu:258624'
p6541
VOlfr120
p6542
sS'mmu:258625'
p6543
VOlfr116
p6544
sS'cpd:C05285'
p6545
S'HMDB06772'
p6546
sS'cpd:C05284'
p6547
S'HMDB06773'
p6548
sS'mmu:258620'
p6549
VOlfr350
p6550
sS'mmu:258621'
p6551
VOlfr344
p6552
sS'mmu:258628'
p6553
VOlfr1489
p6554
sS'mmu:258629'
p6555
VOlfr1487
p6556
sS'cpd:C05443'
p6557
S'HMDB14315'
p6558
sS'mmu:258242'
p6559
VOlfr955
p6560
sS'cpd:C16041'
p6561
VPUBCHEM47205351
p6562
sS'cpd:C05446'
p6563
S'HMDB01231'
p6564
sS'cpd:C05445'
p6565
VPUBCHEM7807
p6566
sS'cpd:C05444'
p6567
VPUBCHEM7806
p6568
sS'cpd:C05449'
p6569
S'HMDB06896'
p6570
sS'cpd:C05448'
p6571
S'HMDB12456'
p6572
sS'mmu:387249'
p6573
VMirlet7g
p6574
sS'cpd:C02714'
p6575
S'HMDB60268'
p6576
sS'cpd:C16453'
p6577
S'HMDB11603'
p6578
sS'cpd:C16327'
p6579
VPUBCHEM47205635
p6580
sS'mmu:71773'
p6581
VUgt2b1
p6582
sS'cpd:C16328'
p6583
VPUBCHEM47205636
p6584
sS'mmu:258340'
p6585
VOlfr1265
p6586
sS'cpd:C06157'
p6587
VPUBCHEM8413
p6588
sS'mmu:75540'
p6589
VFpgt
p6590
sS'mmu:70791'
p6591
VHars2
p6592
sS'mmu:27060'
p6593
VTcirg1
p6594
sS'cpd:C06213'
p6595
S'HMDB04370'
p6596
sS'mmu:97541'
p6597
VQars
p6598
sS'mmu:387243'
p6599
VMir200b
p6600
sS'mmu:258538'
p6601
VOlfr775
p6602
sS'mmu:258532'
p6603
VOlfr373
p6604
sS'mmu:258533'
p6605
VOlfr1364
p6606
sS'mmu:258530'
p6607
VOlfr311
p6608
sS'mmu:258531'
p6609
VOlfr315
p6610
sS'mmu:258536'
p6611
VOlfr1360
p6612
sS'mmu:258537'
p6613
VOlfr777
p6614
sS'mmu:54004'
p6615
VDiap2
p6616
sS'cpd:C02670'
p6617
VPUBCHEM5641
p6618
sS'cpd:C16638'
p6619
VPUBCHEM51090964
p6620
sS'mmu:11352'
p6621
VAbl2
p6622
sS'mmu:245506'
p6623
VSmek3-ps
p6624
sS'mmu:245509'
p6625
V4932429P05Rik
p6626
sS'cpd:C00082'
p6627
S'HMDB00158'
p6628
sS'mmu:724062'
p6629
VMir101b
p6630
sS'mmu:724063'
p6631
VMir330
p6632
sS'cpd:C00083'
p6633
S'HMDB01175'
p6634
sS'mmu:100038860'
p6635
VOlfr239
p6636
sS'cpd:C14786'
p6637
VPUBCHEM17395784
p6638
sS'mmu:20850'
p6639
VStat5a
p6640
sS'cpd:C14787'
p6641
S'HMDB60301'
p6642
sS'mmu:74302'
p6643
VMtmr3
p6644
sS'mmu:258913'
p6645
VOlfr1377
p6646
sS'mmu:333329'
p6647
VCngb1
p6648
sS'cpd:C05757'
p6649
VPUBCHEM8052
p6650
sS'mmu:21770'
p6651
VPpp2r5d
p6652
sS'mmu:258915'
p6653
VOlfr1348
p6654
sS'mmu:218832'
p6655
VPolr3a
p6656
sS'cpd:C00527'
p6657
S'HMDB01339'
p6658
sS'cpd:C00526'
p6659
S'HMDB00012'
p6660
sS'mmu:258917'
p6661
VOlfr1336
p6662
sS'cpd:C00523'
p6663
VPUBCHEM3806
p6664
sS'cpd:C00882'
p6665
VPUBCHEM4138
p6666
sS'cpd:C06124'
p6667
VPUBCHEM8381
p6668
sS'cpd:C18075'
p6669
S'HMDB60339'
p6670
sS'mmu:258036'
p6671
VOlfr198
p6672
sS'mmu:19264'
p6673
VPtprc
p6674
sS'mmu:258717'
p6675
VOlfr429
p6676
sS'cpd:C05447'
p6677
S'HMDB06895'
p6678
sS'mmu:69983'
p6679
VSis
p6680
sS'cpd:C06127'
p6681
VPUBCHEM8384
p6682
sS'mmu:211472'
p6683
VOlfr1373
p6684
sS'mmu:15980'
p6685
VIfngr2
p6686
sS'mmu:14923'
p6687
VGuk1
p6688
sS'cpd:C00641'
p6689
VPUBCHEM3914
p6690
sS'mmu:258347'
p6691
VOlfr1123
p6692
sS'mmu:637515'
p6693
VNlrp1b
p6694
sS'mmu:16531'
p6695
VKcnma1
p6696
sS'cpd:C00412'
p6697
S'HMDB01114'
p6698
sS'mmu:100043292'
p6699
VGm4340
p6700
sS'cpd:C00417'
p6701
S'HMDB00072'
p6702
sS'mmu:19087'
p6703
VPrkar2a
p6704
sS'cpd:C00415'
p6705
S'HMDB01056'
p6706
sS'mmu:257667'
p6707
VOlfr769
p6708
sS'cpd:C00418'
p6709
S'HMDB59629'
p6710
sS'cpd:C00214'
p6711
S'HMDB00273'
p6712
sS'mmu:12915'
p6713
VAtf6b
p6714
sS'mmu:258346'
p6715
VOlfr1128
p6716
sS'mmu:257665'
p6717
VOlfr1506
p6718
sS'cpd:C00007'
p6719
S'HMDB01377'
p6720
sS'cpd:C16635'
p6721
S'HMDB60405'
p6722
sS'mmu:19649'
p6723
VRobo3
p6724
sS'mmu:258691'
p6725
VOlfr1477
p6726
sS'mmu:258594'
p6727
VOlfr710
p6728
sS'mmu:22335'
p6729
VVdac3
p6730
sS'mmu:258267'
p6731
VOlfr370
p6732
sS'cpd:C15949'
p6733
VPUBCHEM47205265
p6734
sS'cpd:C14144'
p6735
VPUBCHEM7846956
p6736
sS'cpd:C14145'
p6737
VPUBCHEM7846957
p6738
sS'mmu:243881'
p6739
VCyp2b23
p6740
sS'mmu:226143'
p6741
VCyp2c44
p6742
sS'mmu:258265'
p6743
VOlfr1333
p6744
sS'cpd:C16049'
p6745
VPUBCHEM47205359
p6746
sS'mmu:103140'
p6747
VGstt3
p6748
sS'mmu:14854'
p6749
VGss
p6750
sS'cpd:C00410'
p6751
S'HMDB01830'
p6752
sS'mmu:258591'
p6753
VOlfr695
p6754
sS'mmu:56379'
p6755
VKcnj1
p6756
sS'mmu:330953'
p6757
VHcn4
p6758
sS'cpd:C04233'
p6759
VPUBCHEM6902
p6760
sS'cpd:C04230'
p6761
VPUBCHEM6900
p6762
sS'mmu:258593'
p6763
VOlfr700
p6764
sS'cpd:C15891'
p6765
VPUBCHEM47205211
p6766
sS'cpd:C15890'
p6767
VPUBCHEM47205210
p6768
sS'mmu:381924'
p6769
VItgad
p6770
sS'mmu:258341'
p6771
VOlfr1495
p6772
sS'mmu:11542'
p6773
VAdora3
p6774
sS'mmu:69632'
p6775
VArhgef12
p6776
sS'cpd:C05751'
p6777
VPUBCHEM8046
p6778
sS'mmu:258615'
p6779
VOlfr360
p6780
sS'mmu:14102'
p6781
VFas
p6782
sS'mmu:14103'
p6783
VFasl
p6784
sS'cpd:C05946'
p6785
S'HMDB60466'
p6786
sS'cpd:C05947'
p6787
VPUBCHEM8231
p6788
sS'mmu:12984'
p6789
VCsf2rb2
p6790
sS'mmu:258614'
p6791
VOlfr308
p6792
sS'cpd:C03294'
p6793
VPUBCHEM6151
p6794
sS'cpd:C06002'
p6795
S'HMDB02217'
p6796
sS'mmu:258613'
p6797
VOlfr292
p6798
sS'mmu:78798'
p6799
VEml4
p6800
sS'mmu:258344'
p6801
VOlfr390
p6802
sS'cpd:C00080'
p6803
S'HMDB59597'
p6804
sS'mmu:83454'
p6805
VNxf2
p6806
sS'cpd:C16630'
p6807
S'HMDB60402'
p6808
sS'cpd:C00506'
p6809
VPUBCHEM3789
p6810
sS'cpd:C00084'
p6811
S'HMDB00990'
p6812
sS'cpd:C00085'
p6813
VPUBCHEM3385
p6814
sS'mmu:227789'
p6815
VOlfr358
p6816
sS'cpd:C00087'
p6817
VPUBCHEM3387
p6818
sS'cpd:C00089'
p6819
S'HMDB00258'
p6820
sS'cpd:C05750'
p6821
VPUBCHEM8045
p6822
sS'cpd:C06113'
p6823
VPUBCHEM8375
p6824
sS'cpd:C00500'
p6825
VPUBCHEM3783
p6826
sS'cpd:C00642'
p6827
S'HMDB00020'
p6828
sS'cpd:C00643'
p6829
S'HMDB15571'
p6830
sS'cpd:C00640'
p6831
VPUBCHEM3913
p6832
sS'cpd:C19607'
p6833
S'HMDB60519'
p6834
sS'cpd:C00647'
p6835
S'HMDB01555'
p6836
sS'cpd:C00645'
p6837
VPUBCHEM3918
p6838
sS'mmu:94181'
p6839
VNans
p6840
sS'cpd:C04520'
p6841
S'HMDB03848'
p6842
sS'mmu:103142'
p6843
VRdh9
p6844
sS'mmu:229927'
p6845
VClca3b
p6846
sS'cpd:C06754'
p6847
S'HMDB13860'
p6848
sS'mmu:18354'
p6849
VOlfr54
p6850
sS'mmu:18357'
p6851
VOlfr57
p6852
sS'mmu:18351'
p6853
VOlfr51
p6854
sS'mmu:11648'
p6855
VAkp3
p6856
sS'mmu:18352'
p6857
VOlfr52
p6858
sS'mmu:18359'
p6859
VOlfr59
p6860
s.